
armlib:     file format elf32-i386
armlib
architecture: i386, flags 0x00000112:
EXEC_P, HAS_SYMS, D_PAGED
start address 0x080489e0

Program Header:
    PHDR off    0x00000034 vaddr 0x08048034 paddr 0x08048034 align 2**2
         filesz 0x000000c0 memsz 0x000000c0 flags r-x
  INTERP off    0x000000f4 vaddr 0x080480f4 paddr 0x080480f4 align 2**0
         filesz 0x00000013 memsz 0x00000013 flags r--
    LOAD off    0x00000000 vaddr 0x08048000 paddr 0x08048000 align 2**12
         filesz 0x00004638 memsz 0x00004638 flags r-x
    LOAD off    0x00004638 vaddr 0x0804d638 paddr 0x0804d638 align 2**12
         filesz 0x0000015c memsz 0x00001248 flags rw-
 DYNAMIC off    0x000046f4 vaddr 0x0804d6f4 paddr 0x0804d6f4 align 2**2
         filesz 0x000000a0 memsz 0x000000a0 flags rw-
    NOTE off    0x00000108 vaddr 0x08048108 paddr 0x08048108 align 2**2
         filesz 0x00000020 memsz 0x00000020 flags r--

Dynamic Section:
  NEEDED               libc.so.6
  INIT                 0x080487a0
  FINI                 0x0804bb5c
  HASH                 0x08048128
  STRTAB               0x080484a8
  SYMTAB               0x08048258
  STRSZ                0x00000150
  SYMENT               0x00000010
  DEBUG                0x00000000
  PLTGOT               0x0804d660
  PLTRELSZ             0x00000100
  PLTREL               0x00000011
  JMPREL               0x080486a0
  REL                  0x08048688
  RELSZ                0x00000018
  RELENT               0x00000008
  VERNEED              0x08048658
  VERNEEDNUM           0x00000001
  VERSYM               0x0804860c

Version References:
  required from libc.so.6:
    0x0d696911 0x00 03 GLIBC_2.1
    0x0d696910 0x00 02 GLIBC_2.0

Sections:
Idx Name          Size      VMA       LMA       File off  Algn
  0 .interp       00000013  080480f4  080480f4  000000f4  2**0
                  CONTENTS, ALLOC, LOAD, READONLY, DATA
  1 .note.ABI-tag 00000020  08048108  08048108  00000108  2**2
                  CONTENTS, ALLOC, LOAD, READONLY, DATA
  2 .hash         00000130  08048128  08048128  00000128  2**2
                  CONTENTS, ALLOC, LOAD, READONLY, DATA
  3 .dynsym       00000250  08048258  08048258  00000258  2**2
                  CONTENTS, ALLOC, LOAD, READONLY, DATA
  4 .dynstr       00000164  080484a8  080484a8  000004a8  2**0
                  CONTENTS, ALLOC, LOAD, READONLY, DATA
  5 .gnu.version  0000004a  0804860c  0804860c  0000060c  2**1
                  CONTENTS, ALLOC, LOAD, READONLY, DATA
  6 .gnu.version_r 00000030  08048658  08048658  00000658  2**2
                  CONTENTS, ALLOC, LOAD, READONLY, DATA
  7 .rel.got      00000010  08048688  08048688  00000688  2**2
                  CONTENTS, ALLOC, LOAD, READONLY, DATA
  8 .rel.bss      00000008  08048698  08048698  00000698  2**2
                  CONTENTS, ALLOC, LOAD, READONLY, DATA
  9 .rel.plt      00000100  080486a0  080486a0  000006a0  2**2
                  CONTENTS, ALLOC, LOAD, READONLY, DATA
 10 .init         0000002f  080487a0  080487a0  000007a0  2**2
                  CONTENTS, ALLOC, LOAD, READONLY, CODE
 11 .plt          00000210  080487d0  080487d0  000007d0  2**2
                  CONTENTS, ALLOC, LOAD, READONLY, CODE
 12 .text         0000317c  080489e0  080489e0  000009e0  2**4
                  CONTENTS, ALLOC, LOAD, READONLY, CODE
 13 .fini         0000001a  0804bb5c  0804bb5c  00003b5c  2**2
                  CONTENTS, ALLOC, LOAD, READONLY, CODE
 14 .rodata       00000ab8  0804bb80  0804bb80  00003b80  2**5
                  CONTENTS, ALLOC, LOAD, READONLY, DATA
 15 .data         00000014  0804d638  0804d638  00004638  2**2
                  CONTENTS, ALLOC, LOAD, DATA
 16 .eh_frame     00000004  0804d64c  0804d64c  0000464c  2**2
                  CONTENTS, ALLOC, LOAD, DATA
 17 .ctors        00000008  0804d650  0804d650  00004650  2**2
                  CONTENTS, ALLOC, LOAD, DATA
 18 .dtors        00000008  0804d658  0804d658  00004658  2**2
                  CONTENTS, ALLOC, LOAD, DATA
 19 .got          00000094  0804d660  0804d660  00004660  2**2
                  CONTENTS, ALLOC, LOAD, DATA
 20 .dynamic      000000a0  0804d6f4  0804d6f4  000046f4  2**2
                  CONTENTS, ALLOC, LOAD, DATA
 21 .bss          000010e0  0804d7a0  0804d7a0  000047a0  2**5
                  ALLOC
 22 .comment      0000029f  00000000  00000000  000047a0  2**0
                  CONTENTS, READONLY
 23 .note         000000dc  0000029f  0000029f  00004a3f  2**0
                  CONTENTS, READONLY
SYMBOL TABLE:
no symbols


DYNAMIC SYMBOL TABLE:
00000000  w   D  *UND*	00000000              __gmon_start__
0804c635 g    DO .rodata	00000001  Base        DIRSEP
080489d0      DF *UND*	00000022 (GLIBC_2.0)  strcpy
080488f0      DF *UND*	00000029 (GLIBC_2.0)  printf
08048900      DF *UND*	0000003e (GLIBC_2.0)  memcpy
08048850      DF *UND*	00000034 (GLIBC_2.0)  tolower
08048860  w   DF *UND*	00000152 (GLIBC_2.0)  malloc
080489c0  w   DF *UND*	0000008e (GLIBC_2.0)  readdir
08048920      DF *UND*	000001b9 (GLIBC_2.0)  strrchr
08048810      DF *UND*	00000024 (GLIBC_2.0)  fprintf
08048930      DF *UND*	00000023 (GLIBC_2.0)  ctime
08048880  w   DF *UND*	000000a2 (GLIBC_2.0)  __deregister_frame_info
080488b0      DF *UND*	00000096 (GLIBC_2.0)  fseek
080488d0      DF *UND*	00000094 (GLIBC_2.0)  strncmp
08048990      DF *UND*	00000093 (GLIBC_2.0)  strncpy
08048970      DF *UND*	0000002e (GLIBC_2.0)  isalpha
08048870  w   DF *UND*	0000009b (GLIBC_2.0)  fread
08048980      DF *UND*	00000046 (GLIBC_2.0)  memset
08048840  w   DF *UND*	000000a6 (GLIBC_2.0)  ftell
080488c0      DF *UND*	00000041 (GLIBC_2.0)  time
08048950  w   DF *UND*	0000019c (GLIBC_2.0)  opendir
08048820      DF *UND*	0000002e (GLIBC_2.0)  isgraph
08048800      DF *UND*	0000003a (GLIBC_2.0)  strcmp
08048910      DF *UND*	000000f5 (GLIBC_2.1)  fclose
0804d7a0 g    DO .bss	00000004 (GLIBC_2.0)  stderr
080489b0  w   DF *UND*	000000a2 (GLIBC_2.0)  fwrite
08048890      DF *UND*	0000013a (GLIBC_2.0)  __xstat
08048830  w   DF *UND*	0000001b (GLIBC_2.0)  __errno_location
08048960      DF *UND*	000000c8 (GLIBC_2.0)  exit
080489a0      DF *UND*	00000079 (GLIBC_2.1)  fopen
0804bb84 g    DO .rodata	00000004  Base        _IO_stdin_used
080488e0      DF *UND*	00000105 (GLIBC_2.0)  __libc_start_main
08048940  w   DF *UND*	00000070 (GLIBC_2.0)  closedir
080487e0  w   DF *UND*	0000003b (GLIBC_2.0)  mkdir
080487f0  w   DF *UND*	00000074 (GLIBC_2.0)  __register_frame_info
080488a0      DF *UND*	00004329 (GLIBC_2.0)  vfprintf


Contents of section .interp:
 80480f4 2f6c6962 2f6c642d 6c696e75 782e736f  /lib/ld-linux.so
 8048104 2e3200                               .2.             
Contents of section .note.ABI-tag:
 8048108 04000000 10000000 01000000 474e5500  ............GNU.
 8048118 00000000 02000000 00000000 00000000  ................
Contents of section .hash:
 8048128 25000000 25000000 0e000000 06000000  %...%...........
 8048138 05000000 22000000 09000000 00000000  ...."...........
 8048148 00000000 00000000 01000000 19000000  ................
 8048158 00000000 02000000 00000000 00000000  ................
 8048168 1e000000 1a000000 00000000 00000000  ................
 8048178 00000000 10000000 24000000 03000000  ........$.......
 8048188 00000000 07000000 00000000 00000000  ................
 8048198 00000000 1b000000 13000000 1d000000  ................
 80481a8 00000000 00000000 12000000 08000000  ................
 80481b8 00000000 0f000000 0c000000 00000000  ................
 80481c8 00000000 00000000 1f000000 00000000  ................
 80481d8 16000000 1c000000 00000000 15000000  ................
 80481e8 23000000 00000000 00000000 00000000  #...............
 80481f8 00000000 0d000000 0b000000 00000000  ................
 8048208 00000000 14000000 00000000 00000000  ................
 8048218 0a000000 00000000 00000000 04000000  ................
 8048228 00000000 21000000 00000000 17000000  ....!...........
 8048238 00000000 20000000 00000000 11000000  .... ...........
 8048248 18000000 00000000 00000000 00000000  ................
Contents of section .dynsym:
 8048258 00000000 00000000 00000000 00000000  ................
 8048268 01000000 00000000 00000000 20000000  ............ ...
 8048278 10000000 35c60408 01000000 11000f00  ....5...........
 8048288 21000000 d0890408 22000000 12000000  !.......".......
 8048298 28000000 f0880408 29000000 12000000  (.......).......
 80482a8 2f000000 00890408 3e000000 12000000  /.......>.......
 80482b8 36000000 50880408 34000000 12000000  6...P...4.......
 80482c8 3e000000 60880408 52010000 22000000  >...`...R..."...
 80482d8 45000000 c0890408 8e000000 22000000  E..........."...
 80482e8 4d000000 20890408 b9010000 12000000  M... ...........
 80482f8 55000000 10880408 24000000 12000000  U.......$.......
 8048308 5d000000 30890408 23000000 12000000  ]...0...#.......
 8048318 63000000 80880408 a2000000 22000000  c..........."...
 8048328 7b000000 b0880408 96000000 12000000  {...............
 8048338 81000000 d0880408 94000000 12000000  ................
 8048348 89000000 90890408 93000000 12000000  ................
 8048358 91000000 70890408 2e000000 12000000  ....p...........
 8048368 99000000 70880408 9b000000 22000000  ....p......."...
 8048378 9f000000 80890408 46000000 12000000  ........F.......
 8048388 a6000000 40880408 a6000000 22000000  ....@......."...
 8048398 ac000000 c0880408 41000000 12000000  ........A.......
 80483a8 b1000000 50890408 9c010000 22000000  ....P......."...
 80483b8 b9000000 20880408 2e000000 12000000  .... ...........
 80483c8 c1000000 00880408 3a000000 12000000  ........:.......
 80483d8 c8000000 10890408 f5000000 12000000  ................
 80483e8 cf000000 a0d70408 04000000 11001600  ................
 80483f8 d6000000 b0890408 a2000000 22000000  ............"...
 8048408 dd000000 90880408 3a010000 12000000  ........:.......
 8048418 e5000000 30880408 1b000000 22000000  ....0......."...
 8048428 f6000000 60890408 c8000000 12000000  ....`...........
 8048438 fb000000 a0890408 79000000 12000000  ........y.......
 8048448 01010000 84bb0408 04000000 11000f00  ................
 8048458 10010000 e0880408 05010000 12000000  ................
 8048468 22010000 40890408 70000000 22000000  "...@...p..."...
 8048478 2b010000 e0870408 3b000000 22000000  +.......;..."...
 8048488 31010000 f0870408 74000000 22000000  1.......t..."...
 8048498 47010000 a0880408 29430000 12000000  G.......)C......
Contents of section .dynstr:
 80484a8 005f5f67 6d6f6e5f 73746172 745f5f00  .__gmon_start__.
 80484b8 44495253 4550006c 6962632e 736f2e36  DIRSEP.libc.so.6
 80484c8 00737472 63707900 7072696e 7466006d  .strcpy.printf.m
 80484d8 656d6370 7900746f 6c6f7765 72006d61  emcpy.tolower.ma
 80484e8 6c6c6f63 00726561 64646972 00737472  lloc.readdir.str
 80484f8 72636872 00667072 696e7466 00637469  rchr.fprintf.cti
 8048508 6d65005f 5f646572 65676973 7465725f  me.__deregister_
 8048518 6672616d 655f696e 666f0066 7365656b  frame_info.fseek
 8048528 00737472 6e636d70 00737472 6e637079  .strncmp.strncpy
 8048538 00697361 6c706861 00667265 6164006d  .isalpha.fread.m
 8048548 656d7365 74006674 656c6c00 74696d65  emset.ftell.time
 8048558 006f7065 6e646972 00697367 72617068  .opendir.isgraph
 8048568 00737472 636d7000 66636c6f 73650073  .strcmp.fclose.s
 8048578 74646572 72006677 72697465 005f5f78  tderr.fwrite.__x
 8048588 73746174 005f5f65 72726e6f 5f6c6f63  stat.__errno_loc
 8048598 6174696f 6e006578 69740066 6f70656e  ation.exit.fopen
 80485a8 005f494f 5f737464 696e5f75 73656400  ._IO_stdin_used.
 80485b8 5f5f6c69 62635f73 74617274 5f6d6169  __libc_start_mai
 80485c8 6e00636c 6f736564 6972006d 6b646972  n.closedir.mkdir
 80485d8 005f5f72 65676973 7465725f 6672616d  .__register_fram
 80485e8 655f696e 666f0076 66707269 6e746600  e_info.vfprintf.
 80485f8 474c4942 435f322e 3100474c 4942435f  GLIBC_2.1.GLIBC_
 8048608 322e3000                             2.0.            
Contents of section .gnu.version:
 804860c 00000000 01000200 02000200 02000200  ................
 804861c 02000200 02000200 02000200 02000200  ................
 804862c 02000200 02000200 02000200 02000200  ................
 804863c 03000200 02000200 02000200 03000100  ................
 804864c 02000200 02000200 0200               ..........      
Contents of section .gnu.version_r:
 8048658 01000200 17000000 10000000 00000000  ................
 8048668 1169690d 00000300 50010000 10000000  .ii.....P.......
 8048678 1069690d 00000200 5a010000 00000000  .ii.....Z.......
Contents of section .rel.got:
 8048688 f0d60408 06020000 ecd60408 06010000  ................
Contents of section .rel.bss:
 8048698 a0d70408 05190000                    ........        
Contents of section .rel.plt:
 80486a0 6cd60408 07220000 70d60408 07230000  l...."..p....#..
 80486b0 74d60408 07170000 78d60408 070a0000  t.......x.......
 80486c0 7cd60408 07160000 80d60408 071c0000  |...............
 80486d0 84d60408 07130000 88d60408 07060000  ................
 80486e0 8cd60408 07070000 90d60408 07110000  ................
 80486f0 94d60408 070c0000 98d60408 071b0000  ................
 8048700 9cd60408 07240000 a0d60408 070d0000  .....$..........
 8048710 a4d60408 07140000 a8d60408 070e0000  ................
 8048720 acd60408 07200000 b0d60408 07040000  ..... ..........
 8048730 b4d60408 07050000 b8d60408 07180000  ................
 8048740 bcd60408 07090000 c0d60408 070b0000  ................
 8048750 c4d60408 07210000 c8d60408 07150000  .....!..........
 8048760 ccd60408 071d0000 d0d60408 07100000  ................
 8048770 d4d60408 07120000 d8d60408 070f0000  ................
 8048780 dcd60408 071e0000 e0d60408 071a0000  ................
 8048790 e4d60408 07080000 e8d60408 07030000  ................
Contents of section .init:
 80487a0 5589e553 e8000000 005b81c3 b74e0000  U..S.....[...N..
 80487b0 83bb8c00 00000074 05e84278 fbf789f6  .......t..Bx....
 80487c0 e89b0200 00e86633 00008b5d fcc9c3    ......f3...]... 
Contents of section .plt:
 80487d0 ff3564d6 0408ff25 68d60408 00000000  .5d....%h.......
 80487e0 ff256cd6 04086800 000000e9 e0ffffff  .%l...h.........
 80487f0 ff2570d6 04086808 000000e9 d0ffffff  .%p...h.........
 8048800 ff2574d6 04086810 000000e9 c0ffffff  .%t...h.........
 8048810 ff2578d6 04086818 000000e9 b0ffffff  .%x...h.........
 8048820 ff257cd6 04086820 000000e9 a0ffffff  .%|...h ........
 8048830 ff2580d6 04086828 000000e9 90ffffff  .%....h(........
 8048840 ff2584d6 04086830 000000e9 80ffffff  .%....h0........
 8048850 ff2588d6 04086838 000000e9 70ffffff  .%....h8....p...
 8048860 ff258cd6 04086840 000000e9 60ffffff  .%....h@....`...
 8048870 ff2590d6 04086848 000000e9 50ffffff  .%....hH....P...
 8048880 ff2594d6 04086850 000000e9 40ffffff  .%....hP....@...
 8048890 ff2598d6 04086858 000000e9 30ffffff  .%....hX....0...
 80488a0 ff259cd6 04086860 000000e9 20ffffff  .%....h`.... ...
 80488b0 ff25a0d6 04086868 000000e9 10ffffff  .%....hh........
 80488c0 ff25a4d6 04086870 000000e9 00ffffff  .%....hp........
 80488d0 ff25a8d6 04086878 000000e9 f0feffff  .%....hx........
 80488e0 ff25acd6 04086880 000000e9 e0feffff  .%....h.........
 80488f0 ff25b0d6 04086888 000000e9 d0feffff  .%....h.........
 8048900 ff25b4d6 04086890 000000e9 c0feffff  .%....h.........
 8048910 ff25b8d6 04086898 000000e9 b0feffff  .%....h.........
 8048920 ff25bcd6 040868a0 000000e9 a0feffff  .%....h.........
 8048930 ff25c0d6 040868a8 000000e9 90feffff  .%....h.........
 8048940 ff25c4d6 040868b0 000000e9 80feffff  .%....h.........
 8048950 ff25c8d6 040868b8 000000e9 70feffff  .%....h.....p...
 8048960 ff25ccd6 040868c0 000000e9 60feffff  .%....h.....`...
 8048970 ff25d0d6 040868c8 000000e9 50feffff  .%....h.....P...
 8048980 ff25d4d6 040868d0 000000e9 40feffff  .%....h.....@...
 8048990 ff25d8d6 040868d8 000000e9 30feffff  .%....h.....0...
 80489a0 ff25dcd6 040868e0 000000e9 20feffff  .%....h..... ...
 80489b0 ff25e0d6 040868e8 000000e9 10feffff  .%....h.........
 80489c0 ff25e4d6 040868f0 000000e9 00feffff  .%....h.........
 80489d0 ff25e8d6 040868f8 000000e9 f0fdffff  .%....h.........
Contents of section .text:
 80489e0 31ed5e89 e183e4f8 50545268 5cbb0408  1.^.....PTRh\...
 80489f0 68a08704 08515668 88a90408 e8dffeff  h....QVh........
 8048a00 fff49090 90909090 90909090 90909090  ................
 8048a10 5589e583 3d40d604 08007538 eb0f89f6  U...=@....u8....
 8048a20 8d500489 153cd604 088b00ff d0a13cd6  .P...<........<.
 8048a30 04088338 0075e9b8 80880408 85c0740a  ...8.u........t.
 8048a40 684cd604 08e836fe ffffc705 40d60408  hL....6.....@...
 8048a50 01000000 c9c389f6 5589e5c9 c38d7600  ........U.....v.
 8048a60 5589e5b8 f0870408 85c0740f 68a4d704  U.........t.h...
 8048a70 08684cd6 0408e875 fdffffc9 c38d7600  .hL....u......v.
 8048a80 5589e5c9 c3909090 90909090 90909090  U...............
 8048a90 5589e553 8b5d086a 00e84221 000083c4  U..S.].j..B!....
 8048aa0 0481fbc5 c6cbc374 276a01e8 30210000  .......t'j..0!..
 8048ab0 53e86621 000083c4 083dc5c6 cbc37410  S.f!.....=....t.
 8048ac0 6a00e819 21000031 c0eb1090 8d742600  j...!..1.....t&.
 8048ad0 891d44d8 0408b801 0000008b 5dfcc9c3  ..D.........]...
 8048ae0 5589e556 538b5d08 8b750c90 8d742600  U..VS.]..u...t&.
 8048af0 803b2a75 1f43803b 2a74fa80 3e00741a  .;*u.C.;*t..>.t.
 8048b00 5653e8d9 ffffff83 c40885c0 74324680  VS..........t2F.
 8048b10 3e0075ec 8a1684d2 75060fbe 03eb2390  >.u.....u.....#.
 8048b20 8a033c3f 74100c20 80ca2038 d07407b8  ..<?t.. .. 8.t..
 8048b30 01000000 eb0c4346 ebb68db6 00000000  ......CF........
 8048b40 31c08d65 f85b5ec9 c38d7600 5589e557  1..e.[^...v.U..W
 8048b50 56538b45 088b7d0c 8d580cff 7004e8b9  VS.E..}..X..p...
 8048b60 200000c1 e0048d34 1883c404 39f37327   ......4....9.s'
 8048b70 837b0800 741a6a08 5753e851 fdffff83  .{..t.j.WS.Q....
 8048b80 c40c85c0 750a89d8 eb0f8db6 00000000  ....u...........
 8048b90 83c31039 f372d931 c08d65f4 5b5e5fc9  ...9.r.1..e.[^_.
 8048ba0 c38d7600 5589e583 ec085756 538b4508  ..v.U.....WVS.E.
 8048bb0 ff7004e8 64200000 89c78b45 08ff30e8  .p..d .....E..0.
 8048bc0 58200000 89c283c4 08833d58 d8040800  X ........=X....
 8048bd0 7406837d 08007518 6a0d68a0 bb04088b  t..}..u.j.h.....
 8048be0 450c50e8 18fdffff 89c2e99b 00000090  E.P.............
 8048bf0 c1ef1089 d0c1e010 89fb09c3 89d6c1ee  ................
 8048c00 1081fbff 69996e77 014e81c3 00966691  ....i.nw.N....f.
 8048c10 8d46cd89 c6c745fc 00000000 85c0741a  .F....E.......t.
 8048c20 81fbff27 6bee7701 4e81c300 d8941181  ...'k.w.N.......
 8048c30 45fc005a 620285f6 75e6895d f8ba1f85  E..Zb...u..]....
 8048c40 eb5189d8 f7e2c1ea 050355fc 8955fc79  .Q........U..U.y
 8048c50 07c745fc 00000000 8d45fc50 e8cffcff  ..E......E.P....
 8048c60 ff83c404 89c2528b 450c50e8 60fdffff  ......R.E.P.`...
 8048c70 8b7d0c31 c0fcb9ff fffffff2 aef7d18b  .}.1............
 8048c80 450cc644 08fe008b 450c8d65 ec5b5e5f  E..D....E..e.[^_
 8048c90 c9c389f6 5589e553 8b5d0868 adbb0408  ....U..S.].h....
 8048ca0 68bbbb04 08ff35a0 d70408e8 60fbffff  h.....5.....`...
 8048cb0 83c40c83 fb017508 68c0bb04 08eb1b90  ......u.h.......
 8048cc0 83fb0275 0b68cbbb 0408eb0e 8d742600  ...u.h.......t&.
 8048cd0 83fb027e 1368d6bb 0408ff35 a0d70408  ...~.h.....5....
 8048ce0 e82bfbff ff83c408 8d451050 ff750cff  .+.......E.P.u..
 8048cf0 35a0d704 08e8a6fb ffff68e1 bb0408ff  5.........h.....
 8048d00 35a0d704 08e806fb ffff83c4 1483fb01  5...............
 8048d10 7e0e6a01 e847fcff ff8db426 00000000  ~.j..G.....&....
 8048d20 8b5dfcc9 c38d7600 5589e556 538b7508  .]....v.U..VS.u.
 8048d30 85f67f10 566800bc 04086a02 e853ffff  ....Vh....j..S..
 8048d40 ff83c40c 56e816fb ffff89c3 83c40485  ....V...........
 8048d50 db750f68 24bc0408 6a03e835 ffffff83  .u.h$...j..5....
 8048d60 c408566a 0053e815 fcffff89 d88d65f8  ..Vj.S........e.
 8048d70 5b5ec9c3 5589e5c9 c38d7600 5589e583  [^..U.....v.U...
 8048d80 ec105756 536833bc 0408ff35 14d80408  ..WVSh3....5....
 8048d90 e80bfcff ff8945f4 83c40885 c07515ff  ......E......u..
 8048da0 3514d804 086836bc 04086a02 e8e3feff  5....h6...j.....
 8048db0 ff83c40c 6a1ce86d ffffff89 45fc8b4d  ....j..m....E..M
 8048dc0 f4516a01 6a0c89c1 51e8a2fa ffff83c4  .Qj.j...Q.......
 8048dd0 1483f801 0f85ea03 00008b4d fcff31e8  ...........M..1.
 8048de0 acfcffff 83c40485 c00f84c8 0300008b  ................
 8048df0 4dfcff71 08e8221e 000089c3 8b4dfcff  M..q.."......M..
 8048e00 7104e815 1e000083 c40839c3 0f8fa503  q.........9.....
 8048e10 00006a00 6a008b4d f451e891 faffff8b  ..j.j..M.Q......
 8048e20 4dfcff71 04e8f21d 000089c6 89f3c1e3  M..q............
 8048e30 0483cb0c 53e8eefe ffffa318 d804088b  ....S...........
 8048e40 4df4516a 015350e8 24faffff 83c42483  M.Qj.SP.$.....$.
 8048e50 f8010f85 6c030000 8d04b504 00000050  ....l..........P
 8048e60 e8c3feff ffa300d8 040831d2 83c40439  ..........1....9
 8048e70 f27f11a1 00d80408 c7049000 00000042  ...............B
 8048e80 39f27eef 8b0d18d8 0408894d fc890d4c  9.~........M...L
 8048e90 d8040868 51bc0408 51e8aefc ffffa350  ...hQ...Q......P
 8048ea0 d8040883 c40885c0 0f840903 0000685a  ..............hZ
 8048eb0 bc04088b 4dfc51e8 90fcffff a360d804  ....M.Q......`..
 8048ec0 0883c408 85c0746d 83780c00 7467c705  ......tm.x..tg..
 8048ed0 24d80408 01000000 ff700ce8 3c1d0000  $........p..<...
 8048ee0 50e842fe ffffa310 d804086a 00a160d8  P.B........j..`.
 8048ef0 0408ff70 08e8221d 000083c4 04508b4d  ...p.."......P.M
 8048f00 f451e8a9 f9ffff8b 4df4516a 01a160d8  .Q......M.Qj..`.
 8048f10 0408ff70 0ce8021d 000083c4 0450ff35  ...p.........P.5
 8048f20 10d80408 e847f9ff ff83c424 83f8010f  .....G.....$....
 8048f30 858f0200 00833d24 d8040800 7516833d  ......=$....u..=
 8048f40 2cd80408 00750d83 3d30d804 08000f84  ,....u..=0......
 8048f50 15010000 6863bc04 088b4dfc 51e8eafb  ....hc....M.Q...
 8048f60 ffffa358 d804086a 04e8bafd ffffa304  ...X...j........
 8048f70 d804086a 00a158d8 0408ff70 08e89a1c  ...j..X....p....
 8048f80 000083c4 04508b4d f451e821 f9ffff8b  .....P.M.Q.!....
 8048f90 4df4516a 016a04ff 3504d804 08e8cef8  M.Qj.j..5.......
 8048fa0 ffff83c4 2883f801 0f851602 0000686c  ....(.........hl
 8048fb0 bc04088b 4dfc51e8 90fbffff a354d804  ....M.Q......T..
 8048fc0 086a08e8 60fdffff a308d804 086a00a1  .j..`........j..
 8048fd0 54d80408 ff7008e8 401c0000 83c40450  T....p..@......P
 8048fe0 8b4df451 e8c7f8ff ff8b4df4 516a016a  .M.Q......M.Qj.j
 8048ff0 08ff3508 d80408e8 74f8ffff 83c42883  ..5.....t.....(.
 8049000 f8010f85 bc010000 6875bc04 088b4dfc  ........hu....M.
 8049010 51e836fb ffffa35c d8040883 c40885c0  Q.6....\........
 8049020 74476a08 e8fffcff ffa30cd8 04086a00  tGj...........j.
 8049030 a15cd804 08ff7008 e8df1b00 0083c404  .\....p.........
 8049040 508b4df4 51e866f8 ffff8b4d f4516a01  P.M.Q.f....M.Qj.
 8049050 6a08ff35 0cd80408 e813f8ff ff83c420  j..5........... 
 8049060 83f8010f 855b0100 00a150d8 0408ff70  .....[....P....p
 8049070 0ce8a61b 000083c4 0485c00f 84210100  .............!..
 8049080 00a150d8 0408ff70 0ce88e1b 000050e8  ..P....p......P.
 8049090 94fcffff a31cd804 086a00a1 50d80408  .........j..P...
 80490a0 ff7008e8 741b0000 83c40450 8b4df451  .p..t......P.M.Q
 80490b0 e8fbf7ff ff8b4df4 516a01a1 50d80408  ......M.Qj..P...
 80490c0 ff700ce8 541b0000 83c40450 ff351cd8  .p..T......P.5..
 80490d0 0408e899 f7ffff83 c42483f8 010f85e1  .........$......
 80490e0 0000008b 351cd804 08a150d8 0408ff70  ....5.....P....p
 80490f0 0ce8261b 000001f0 8945f083 c40439c6  ..&......E....9.
 8049100 0f83a600 0000ff36 e80f1b00 00c1e004  .......6........
 8049110 8b4dfcff 740814e8 001b0000 8945f8ff  .M..t........E..
 8049120 36e8f61a 0000c1e0 048b4dfc ff740818  6.........M..t..
 8049130 e8e71a00 0089c7ff 36e8de1a 000089c3  ........6.......
 8049140 57e8e2fb ffff89c2 a100d804 08891498  W...............
 8049150 6a008b4d f8518b4d f451e851 f7ffff83  j..M.Q.M.Q.Q....
 8049160 c4248b4d f4516a01 57ff36e8 ac1a0000  .$.M.Qj.W.6.....
 8049170 83c40489 c2a100d8 0408ff34 90e8eef6  ...........4....
 8049180 ffff83c4 1083f801 753aff76 04e88a1a  ........u:.v....
 8049190 000001c6 83c4043b 75f00f82 66ffffff  .......;u...f...
 80491a0 eb0ac705 44d80408 00000000 8b4df451  ....D........M.Q
 80491b0 e85bf7ff ffeb1fff 3514d804 08687ebc  .[......5....h~.
 80491c0 0408eb0b ff3514d8 04086898 bc04086a  .....5....h....j
 80491d0 02e8befa ffff8d65 e45b5e5f c9c389f6  .......e.[^_....
 80491e0 5589e553 8b45088b 5d0c89d9 83e11fba  U..S.E..].......
 80491f0 01000000 d3e2c1fb 05851498 0f95c025  ...............%
 8049200 ff000000 8b5dfcc9 c38d7600 5589e556  .....]....v.U..V
 8049210 538b450c 8b5d1089 c2c1fa05 8d349500  S.E..].......4..
 8049220 00000003 750883e0 1fba0100 000089c1  ....u...........
 8049230 d3e285db 740a0916 eb0a8db6 00000000  ....t...........
 8049240 f7d22116 89d88d65 f85b5ec9 c38d7600  ..!....e.[^...v.
 8049250 5589e553 8b5d0831 c9803b00 742889f6  U..S.].1..;.t(..
 8049260 89cac1e2 040fb603 8d0c1043 89ca81e2  ...........C....
 8049270 000000f0 740789d0 c1e81831 c1f7d221  ....t......1...!
 8049280 d1803b00 75da89c8 8b5dfcc9 c38d7600  ..;.u....]....v.
 8049290 5589e583 ec045756 538b7508 56e8aeff  U.....WVS.u.V...
 80492a0 ffff89c3 81e3ff7f 00005368 80d80408  ..........Sh....
 80492b0 e82bffff ff89c283 c40c85d2 74278b1d  .+..........t'..
 80492c0 d0d70408 85db742d 568d4314 50e82ef5  ......t-V.C.P...
 80492d0 ffff83c4 0885c00f 84930000 008b1b85  ................
 80492e0 db75e5eb 106a0153 6880d804 08e81aff  .u...j.Sh.......
 80492f0 ffff83c4 0cff0548 d804088b 451483c0  .......H....E...
 8049300 0324fc01 053cd804 0889f731 c0fcb9ff  .$...<.....1....
 8049310 fffffff2 aef7d183 c10383e1 fc894dfc  ..............M.
 8049320 010d40d8 040889c8 83c01850 e8f7f9ff  ..@........P....
 8049330 ff89c383 c404568d 431450e8 90f6ffff  ......V.C.P.....
 8049340 8b450c89 43108b45 1889430c 8b451089  .E..C..E..C..E..
 8049350 43048b45 14894308 c7030000 00008b15  C..E..C.........
 8049360 d4d70408 85d27418 891aeb1a 8d742600  ......t......t&.
 8049370 5668abbc 04086a02 e817f9ff ffeb0d90  Vh....j.........
 8049380 891dd0d7 0408891d d4d70408 8d65f05b  .............e.[
 8049390 5e5fc9c3 5589e583 ec1c5756 53a14cd8  ^_..U.....WVS.L.
 80493a0 04088945 f4a1c8d7 0408e9fc 00000090  ...E............
 80493b0 c745f000 0000008b 45fc83c0 048945ec  .E......E.....E.
 80493c0 50e8aef9 ffff83c4 048b1550 d8040885  P..........P....
 80493d0 d20f84bc 0000008b 1d1cd804 08ff720c  ..............r.
 80493e0 e8371800 0001d889 45f883c4 0439c30f  .7......E....9..
 80493f0 83980000 00833b00 747d8d73 0c568b45  ......;.t}.s.V.E
 8049400 ec50e8d9 f6ffff89 c283c408 85d27567  .P............ug
 8049410 89f731c0 fcb9ffff fffff2ae f7d183c1  ..1.............
 8049420 0383e1fc 8d440b0c 8945e8ff 33e8ea17  .....D...E..3...
 8049430 000089c2 a100d804 088b3c90 c1e2048b  ..........<.....
 8049440 45f4ff74 0218e8d1 17000089 c2c745f0  E..t..........E.
 8049450 01000000 83c40883 3d34d804 08037411  ........=4....t.
 8049460 8b45e850 52576a00 56e822fe ffff83c4  .E.PRWj.V.".....
 8049470 14c70300 000000ff 7304e89d 17000001  ........s.......
 8049480 c383c404 3b5df80f 8268ffff ff837df0  ....;]...h....}.
 8049490 0075138b 45ec5068 c8bc0408 6a02e8f1  .u..E.Ph....j...
 80494a0 f7ffff83 c40c8b45 fc8b0089 45fc85c0  .......E....E...
 80494b0 0f85fafe ffff8d65 d85b5e5f c9c389f6  .......e.[^_....
 80494c0 5589e557 56538b7d 08a150d8 040885c0  U..WVS.}..P.....
 80494d0 74408b1d 1cd80408 ff700ce8 3c170000  t@.......p..<...
 80494e0 8d3418eb 26833b00 74178d43 0c5057e8  .4..&.;.t..C.PW.
 80494f0 ecf5ffff 83c40885 c07506c7 03000000  .........u......
 8049500 00ff7304 e8131700 0001c383 c40439f3  ..s...........9.
 8049510 72d38d65 f45b5e5f c9c389f6 5589e556  r..e.[^_....U..V
 8049520 536833bc 0408ff75 08e872f4 ffff89c3  Sh3....u..r.....
 8049530 83c40885 db741c6a 026a0053 e86ff3ff  .....t.j.j.S.o..
 8049540 ff53e8f9 f2ffff89 c653e8c1 f3ffff89  .S.......S......
 8049550 f0eb05b8 ffffffff 8d65f85b 5ec9c390  .........e.[^...
 8049560 5589e583 ec385756 53a1c8d7 04088945  U....8WVS......E
 8049570 dc85c00f 84950100 008d4de8 894dd08d  ..........M..M..
 8049580 45e08945 ccc745d8 00000000 c745d400  E..E..E......E..
 8049590 000000c6 45fd038b 4dd05168 d9bc0408  ....E...M.Qh....
 80495a0 8b5ddc83 c30453e8 b01b0000 83c40c83  .]....S.........
 80495b0 7dec0075 06837de8 007448c6 45fa00c6  }..u..}..tH.E...
 80495c0 45fb000f b655f90f b645f88d 54100289  E....U...E..T...
 80495d0 55d452e8 50f7ffff 8945d88b 4dd45150  U.R.P....E..M.QP
 80495e0 6a008b4d d051e8e1 1c00008b 7dd831c0  j..M.Q......}.1.
 80495f0 fcb9ffff fffff2ae 89caf7d2 4a8955d4  ............J.U.
 8049600 83c4148b 45cc50ff 75f08b4d d851e8ed  ....E.P.u..M.Q..
 8049610 22000089 c683c40c 85f67515 5368dbbc  ".........u.Sh..
 8049620 04086a02 e86bf6ff ff83c40c e9c10000  ..j..k..........
 8049630 0089f731 c0fcb9ff fffffff2 ae89ca8b  ...1............
 8049640 45d48945 c82955c8 8b4dc851 e8d7f6ff  E..E.)U..M.Q....
 8049650 ff89c383 c404837d d8007420 8b45d850  .......}..t .E.P
 8049660 53e86af3 ffff83c4 08807df9 00740d8a  S.j.......}..t..
 8049670 4dfe8b45 d4880c18 408945d4 568b4dd4  M..E....@.E.V.M.
 8049680 01d951e8 48f3ffff 83c40853 e88bfeff  ..Q.H......S....
 8049690 ff89c283 c40485d2 7d165368 dbbc0408  ........}.Sh....
 80496a0 6a02e8ed f5ffff83 c40ceb30 8d742600  j..........0.t&.
 80496b0 833d38d8 04080074 090fb645 f88d3c18  .=8....t...E..<.
 80496c0 eb0289f7 68c0d704 08526a00 5357e8bd  ....h....Rj.SW..
 80496d0 fbffff57 e8e7fdff ff83c418 8b45cc50  ...W.........E.P
 80496e0 e86b2200 0089c683 c40485f6 0f853fff  .k"...........?.
 80496f0 ffff8b4d cc51e89d 22000083 c4048b45  ...M.Q.."......E
 8049700 dc8b0089 45dc85c0 0f8577fe ffff8d65  ....E.....w....e
 8049710 bc5b5e5f c9c389f6 5589e583 ec0c5756  .[^_....U.....WV
 8049720 538b1550 d8040885 d20f8497 000000a1  S..P............
 8049730 4cd80408 8945f88b 1d1cd804 08ff720c  L....E........r.
 8049740 e8d71400 0089c201 da8955fc 83c40439  ..........U....9
 8049750 d373738b 1385d274 5b8d730c 89f731c0  .ss....t[.s...1.
 8049760 fcb9ffff fffff2ae f7d183c1 0383e1fc  ................
 8049770 8d440b0c 5052e8a1 14000083 c40489c2  .D..PR..........
 8049780 c1e2048b 45f8ff74 0218e88d 14000083  ....E..t........
 8049790 c40489c2 52ff33e8 80140000 83c40489  ....R.3.........
 80497a0 c2a100d8 0408ff34 906a0056 e8dffaff  .......4.j.V....
 80497b0 ff83c414 ff7304e8 60140000 01c383c4  .....s..`.......
 80497c0 043b5dfc 728d8d65 e85b5e5f c9c389f6  .;].r..e.[^_....
 80497d0 5589e583 ec18c645 fd038d45 e85068d9  U......E...E.Ph.
 80497e0 bc0408ff 7508e871 19000083 3d38d804  ....u..q....=8..
 80497f0 08007407 8b45ec85 c0750f8b 45f485c0  ..t..E...u..E...
 8049800 74053945 f073038b 45f0c9c3 5589e583  t.9E.s..E...U...
 8049810 ec085756 53a1d0d7 0408e9da 00000090  ..WVS...........
 8049820 8b45fc83 c01450e8 a4ffffff 89c683c4  .E....P.........
 8049830 048b3d20 d8040885 ff745731 c0fcb9ff  ..= .....tW1....
 8049840 fffffff2 aef7d18d 59ff89f7 fcb9ffff  ........Y.......
 8049850 fffff2ae 895df829 4df88b45 f850e8c5  .....].)M..E.P..
 8049860 f4ffff89 c783c404 ff3520d8 040857e8  .........5 ...W.
 8049870 5cf1ffff 83c4088a 05efbc04 0888043b  \..............;
 8049880 568d5c3b 0153e845 f1ffff83 c40889fb  V.\;.S.E........
 8049890 eb0289f3 68f0bc04 0853e801 f1ffff89  ....h....S......
 80498a0 c783c408 85ff7518 5368f3bc 04086a02  ......u.Sh....j.
 80498b0 e8dff3ff ff83c40c eb3a8db6 00000000  .........:......
 80498c0 576a018b 45fcff70 08ff7004 e8dff0ff  Wj..E..p..p.....
 80498d0 ff89c283 c41083fa 01741053 680bbd04  .........t.Sh...
 80498e0 086a02e8 acf3ffff 83c40c57 e81ff0ff  .j.........W....
 80498f0 ff83c404 8b45fc8b 008945fc 85c00f85  .....E....E.....
 8049900 1cffffff 8d65ec5b 5e5fc9c3 5589e557  .....e.[^_..U..W
 8049910 56538b7d 088b5d10 8b75146a 08ff750c  VS.}..]..u.j..u.
 8049920 57e86af0 ffff83c4 0c53e8ed 12000089  W.j......S......
 8049930 470856e8 e4120000 89470c89 f88d65f4  G.V......G....e.
 8049940 5b5e5fc9 c38d7600 5589e583 ec645756  [^_...v.U....dWV
 8049950 53c745f0 00000000 c745e800 000000c7  S.E......E......
 8049960 45d00000 00008b1d 48d80408 85db7419  E.......H.....t.
 8049970 8d04dd00 00000050 e8abf3ff ff8945d0  .......P......E.
 8049980 83c4048b 1d48d804 088d4303 8945ec83  .....H....C..E..
 8049990 3d28d804 08007406 8d530589 55ec8d1c  =(....t..S..U...
 80499a0 9b8b0d40 d804088d 0c99894d f88b45ec  ...@.......M..E.
 80499b0 8945ccc1 65cc048b 55cc83c2 188955fc  .E..e...U.....U.
 80499c0 89d301cb 8d4b0851 e85bf3ff ff8945e0  .....K.Q.[....E.
 80499d0 a318d804 08a34cd8 04080345 fca31cd8  ......L....E....
 80499e0 04088945 d8895dfc 68f0bc04 08ff3514  ...E..].h.....5.
 80499f0 d80408e8 a8efffff 8945d483 c40c85c0  .........E......
 8049a00 7515ff35 14d80408 68f3bc04 086a02e8  u..5....h....j..
 8049a10 80f2ffff 83c40c8b 55d4528b 4dfc516a  ........U.R.M.Qj
 8049a20 018b45e0 50e886ef ffff89c3 83c4103b  ..E.P..........;
 8049a30 5dfc7415 ff3514d8 04086824 bd04086a  ].t..5....h$...j
 8049a40 02e84ef2 ffff83c4 0cc745f4 03000000  ..N.......E.....
 8049a50 8b55e083 c23c8955 e48b0dd0 d7040889  .U...<.U........
 8049a60 4ddc85c9 0f846204 00008b45 d08945b4  M.....b....E..E.
 8049a70 8b55dc83 c2148955 c88b4ddc 8b590485  .U.....U..M..Y..
 8049a80 db0f8593 0000008b 591085db 750289d3  ........Y...u...
 8049a90 8b45dc83 78080075 0853683b bd0408eb  .E..x..u.Sh;....
 8049aa0 2d6833bc 040853e8 f4eeffff 89c68b4d  -h3...S........M
 8049ab0 dcff7108 e86ff2ff ff89c78b 45dc8978  ..q..o......E..x
 8049ac0 0483c40c 85f67518 5368f3bc 04086a02  ......u.Sh....j.
 8049ad0 e8bff1ff ff83c40c 8b55dc8b 5a04eb3a  .........U..Z..:
 8049ae0 566a018b 4ddcff71 08ff7104 e87fedff  Vj..M..q..q.....
 8049af0 ff89c783 c41083ff 01741053 6898bc04  .........t.Sh...
 8049b00 086a02e8 8cf1ffff 83c40c56 e8ffedff  .j.........V....
 8049b10 ff83c404 8b45dc8b 58048b55 d4528b4d  .....E..X..U.R.M
 8049b20 dcff7108 6a0153e8 84eeffff 89c383c4  ..q.j.S.........
 8049b30 108b45dc 3b580874 15ff3514 d8040868  ..E.;X.t..5....h
 8049b40 24bd0408 6a02e849 f1ffff83 c40c8b55  $...j..I.......U
 8049b50 dc8b7204 833d44d8 04080075 123b15d0  ..r..=D....u.;..
 8049b60 d7040875 0aff36e8 24efffff 83c4048b  ...u..6.$.......
 8049b70 4ddcff71 088b45fc 506850bd 04088b55  M..q..E.PhP....U
 8049b80 e45283c2 108955e4 e87ffdff ff8b4ddc  .R....U.......M.
 8049b90 8b490801 4dfc83c4 108b45fc a803743c  .I..M.....E...t<
 8049ba0 8b55d452 6a016a01 6859bd04 08e8feed  .U.Rj.j.hY......
 8049bb0 ffff89c3 83c41083 fb017415 ff3514d8  ..........t..5..
 8049bc0 04086824 bd04086a 02e8c6f0 ffff83c4  ..h$...j........
 8049bd0 0cff45fc 8b4dfcf6 c10375c4 8b45f450  ..E..M....u..E.P
 8049be0 e8371000 0089c38b 55d8891a 8b7dc831  .7......U....}.1
 8049bf0 c0fcb9ff fffffff2 ae89cbf7 d38d7b03  ..............{.
 8049c00 83e7fc8d 470850e8 10100000 89c38b55  ....G.P........U
 8049c10 d8895a08 8d4f1451 e8ff0f00 0089c38b  ..Z..O.Q........
 8049c20 45d88958 0483c40c 578b55c8 5283c00c  E..X....W.U.R...
 8049c30 50e85aed ffff83c4 0c8b4dd8 ff7104e8  P.Z.......M..q..
 8049c40 d80f0000 89c3015d d88b45dc 8b400c89  .......]..E..@..
 8049c50 c28b028b 52048b4d d88941f8 8951fc83  ....R..M..A..Q..
 8049c60 c404833d 28d80408 000f844a 0200008b  ...=(......J....
 8049c70 3e8b1d44 d8040889 f831d83d 060d0d06  >..D.....1.=....
 8049c80 75108b45 c8506860 bd04086a 02e94401  u..E.Ph`...j..D.
 8049c90 000039df 74108b55 c85268a0 bd04086a  ..9.t..U.Rh....j
 8049ca0 02e93001 00008b4d dc837908 1b762dff  ..0....M..y..v-.
 8049cb0 7608e865 0f000089 c3ff7604 e85b0f00  v..e......v..[..
 8049cc0 0083c408 39c37f14 68c7bd04 0856e879  ....9...h....V.y
 8049cd0 eeffff89 c783c408 85ff7514 8b45c850  ..........u..E.P
 8049ce0 68d0bd04 086a02e9 ea000000 8d742600  h....j.......t&.
 8049cf0 ff7708e8 240f0000 8d1c3068 e7bd0408  .w..$.....0h....
 8049d00 56e846ee ffff89c7 83c40c85 ff75118b  V.F..........u..
 8049d10 55c85268 f0bd0408 e9b70000 008d7600  U.Rh..........v.
 8049d20 ff7708e8 f40e0000 01f08945 c46807be  .w.........E.h..
 8049d30 040856e8 14eeffff 89c783c4 0c85ff75  ..V............u
 8049d40 108b4dc8 516810be 04086a02 e9850000  ..M.Qh....j.....
 8049d50 00ff7708 e8c30e00 0089c701 fe8975bc  ..w...........u.
 8049d60 ff730ce8 b40e0000 8945b8c1 65b8048b  .s.......E..e...
 8049d70 45c40345 b88945c0 31f68b5d c483c408  E..E..E.1..]....
 8049d80 39c37340 ff7304e8 900e0000 83e00383  9.s@.s..........
 8049d90 c40483f8 037525ff 33e87e0e 000089c7  .....u%.3.~.....
 8049da0 037dbc31 c0fcb9ff fffffff2 aef7d183  .}.1............
 8049db0 c10383e1 fc8d7431 0c83c404 83c3103b  ......t1.......;
 8049dc0 5dc072c0 0175f085 f675188b 45c85068  ].r..u...u..E.Ph
 8049dd0 27be0408 6a01e8b9 eeffff83 c40ce9d6  '...j...........
 8049de0 0000008b 55b48932 56e83aef ffff89c3  ....U..2V.:.....
 8049df0 8b4de88b 45d0895c c80489de 8345b408  .M..E..\.....E..
 8049e00 41894de8 8b55c403 55b88955 c083c404  A.M..U..U..U....
 8049e10 3955c40f 83a00000 008db426 00000000  9U.........&....
 8049e20 8b4dc4ff 7104e8f1 0d000089 c383e303  .M..q...........
 8049e30 83c40483 fb037571 8b45c4ff 30e8da0d  ......uq.E..0...
 8049e40 000089c3 8b7dbc01 df31c0fc b9ffffff  .....}...1......
 8049e50 fff2ae89 cbf7d38d 7b0383e7 fc8b45f4  ........{.....E.
 8049e60 50e8b60d 000089c3 891e57e8 ac0d0000  P.........W.....
 8049e70 89c3895e 088d5f0c 53e89e0d 00008945  ...^.._.S......E
 8049e80 9c894604 83c41057 8b55c4ff 32e88a0d  ..F....W.U..2...
 8049e90 000083c4 0489c703 7dbc578d 4e0c51e8  ........}.W.N.Q.
 8049ea0 eceaffff 83c40c01 de8345c4 108b45c0  ..........E...E.
 8049eb0 3945c40f 8267ffff ffff45f4 8b55dc8b  9E...g....E..U..
 8049ec0 128955dc 85d20f85 a4fbffff 813d44d8  ..U..........=D.
 8049ed0 0408c3cb c6c57523 ff35c0d7 0408e839  ......u#.5.....9
 8049ee0 0d0000a3 c0d70408 ff35c4d7 0408e829  .........5.....)
 8049ef0 0d0000a3 c4d70408 83c40883 3d28d804  ............=(..
 8049f00 08000f84 27010000 6a088b4d fc516875  ....'...j..M.Qhu
 8049f10 bc04088b 45e45083 c0108945 e4e8eaf9  ....E.P....E....
 8049f20 ffff89c3 891d5cd8 04086a08 e8f7edff  ......\...j.....
 8049f30 ff89c389 1d0cd804 08a1c0d7 04088b15  ................
 8049f40 c4d70408 89038953 048b55d4 526a016a  .......S..U.Rj.j
 8049f50 08ff350c d80408e8 54eaffff 89c383c4  ..5.....T.......
 8049f60 2483fb01 7415ff35 14d80408 6824bd04  $...t..5....h$..
 8049f70 086a02e8 1cedffff 83c40c83 45fc088b  .j..........E...
 8049f80 4df0518b 45fc5068 5abc0408 8b55e452  M.Q.E.PhZ....U.R
 8049f90 e877f9ff ff89c389 1d60d804 0883c410  .w.......`......
 8049fa0 837df000 0f8e8500 00008b4d f051e875  .}.........M.Q.u
 8049fb0 edffff89 c3891d10 d8040889 dfc745e8  ..............E.
 8049fc0 00000000 83c4048b 45e83b05 48d80408  ........E.;.H...
 8049fd0 7d298b5d d08d7304 ff33ff36 57e81ee9  }).]..s..3.6W...
 8049fe0 ffff033b 83c40c83 c30883c6 08ff45e8  ...;..........E.
 8049ff0 8b55e83b 1548d804 087cdd8b 4dd4516a  .U.;.H...|..M.Qj
 804a000 018b45f0 50ff3510 d80408e8 a0e9ffff  ..E.P.5.........
 804a010 89c383c4 1083fb01 7415ff35 14d80408  ........t..5....
 804a020 6824bd04 086a02e8 68ecffff 83c40c8b  h$...j..h.......
 804a030 1d44d804 0885db75 05bbc5c6 cbc38b55  .D.....u.......U
 804a040 e0891a8b 4dec51e8 d00b0000 89c38b45  ....M.Q........E
 804a050 e0895808 8958048b 55cc83c2 0c8955fc  ..X..X..U.....U.
 804a060 83c00c6a 0852686c bc040850 8b4de083  ...j.Rhl...P.M..
 804a070 c11c894d e4e892f8 ffff89c3 891d54d8  ...M..........T.
 804a080 04088b45 e00345fc 8945b0a3 08d80408  ...E..E..E......
 804a090 a1c0d704 088b15c4 d704088b 4db08901  ............M...
 804a0a0 8951048b 45cc83c0 148945fc 6a045068  .Q..E.....E.j.Ph
 804a0b0 63bc0408 8b55e452 8b4de083 c12c894d  c....U.R.M...,.M
 804a0c0 e4e846f8 ffff89c3 891d58d8 04088b45  ..F.......X....E
 804a0d0 e00345fc a304d804 0883c424 6a01e839  ..E........$j..9
 804a0e0 0b000089 c38b1504 d8040889 1a8b4dcc  ..............M.
 804a0f0 83c1188b 45f85051 6851bc04 088b55e4  ....E.PQhQ....U.
 804a100 52e806f8 ffff89c3 891d50d8 04088b4d  R.........P....M
 804a110 cc8b45f8 8d4c0818 894dfc6a 006a008b  ..E..L...M.j.j..
 804a120 45d450e8 88e7ffff 83c4208b 55d4528b  E.P....... .U.R.
 804a130 4dfc516a 018b45e0 50e872e8 ffff89c3  M.Qj..E.P.r.....
 804a140 83c4103b 5dfc7415 ff3514d8 04086824  ...;].t..5....h$
 804a150 bd04086a 02e83aeb ffff83c4 0c8b55d4  ...j..:.......U.
 804a160 52e8aae7 ffff8d65 905b5e5f c9c389f6  R......e.[^_....
 804a170 5589e583 ec5c5756 53833d2c d8040800  U....\WVS.=,....
 804a180 0f849b00 0000833d 58d80408 00751168  .......=X....u.h
 804a190 a0be0408 e857e7ff ff83c404 eb1c89f6  .....W..........
 804a1a0 a104d804 08ff30e8 700a0000 5068c6be  ......0.p...Ph..
 804a1b0 0408e839 e7ffff83 c40c8d55 b08955a4  ...9.......U..U.
 804a1c0 89d656ff 3508d804 08e8d6e9 ffff5068  ..V.5.........Ph
 804a1d0 dbbe0408 e817e7ff ff68f2be 0408e80d  .........h......
 804a1e0 e7ffff8b 1dd0d704 0883c414 85db7424  ..............t$
 804a1f0 56ff730c e8abe9ff ff50ff73 088d4314  V.s......P.s..C.
 804a200 5068ffbe 0408e8e5 e6ffff83 c4188b1b  Ph..............
 804a210 85db75dc 6812bf04 08e8d2e6 ffff83c4  ..u.h...........
 804a220 04833d30 d8040800 0f844101 00008d4d  ..=0......A....M
 804a230 b0894da4 833d60d8 04080075 0f6823bf  ..M..=`....u.h#.
 804a240 04086a02 e84beaff ff83c408 833d2cd8  ..j..K.......=,.
 804a250 04080074 0d68e1bb 0408e891 e6ffff83  ...t.h..........
 804a260 c404a14c d80408ff 7004e8ad 090000c1  ...L....p.......
 804a270 e00250e8 b0eaffff 8945aca1 4cd80408  ..P......E..L...
 804a280 ff7004e8 94090000 8d048504 00000050  .p.............P
 804a290 e893eaff ff8945a8 8b1d1cd8 0408a150  ......E........P
 804a2a0 d80408ff 700ce871 0900008d 3c1883c4  ....p..q....<...
 804a2b0 1439fb73 308b75a8 ff33e85d 0900008d  .9.s0.u..3.]....
 804a2c0 4b0c8b55 ac890c82 ff33e84d 09000083  K..U.....3.M....
 804a2d0 c6048906 ff7304e8 40090000 01c383c4  .....s..@.......
 804a2e0 0c39fb72 d38b55a4 52ff350c d80408e8  .9.r..U.R.5.....
 804a2f0 b0e8ffff 506840bf 0408e8f1 e5ffff8b  ....Ph@.........
 804a300 1d10d804 08a160d8 0408ff70 0ce80a09  ......`....p....
 804a310 00008d34 1883c414 39f37349 8d742600  ...4....9.sI.t&.
 804a320 8b0385c0 742e833d 58d80408 0075088b  ....t..=X....u..
 804a330 4da88b04 81890350 e8df0800 008b55ac  M......P......U.
 804a340 ff34828d 430c5068 67bf0408 e89fe5ff  .4..C.Phg.......
 804a350 ff83c410 ff7304e8 c0080000 01c383c4  .....s..........
 804a360 0439f372 bb687abf 0408e881 e5ffff8d  .9.r.hz.........
 804a370 65985b5e 5fc9c390 5589e568 e0d70408  e.[^_...U..h....
 804a380 6889bf04 08689abf 040868ad bb040868  h....h....h....h
 804a390 c0bf0408 e857e5ff ff6a3f68 60c00408  .....W...j?h`...
 804a3a0 e84be5ff ff68a0c0 0408e841 e5ffff83  .K...h.....A....
 804a3b0 c42068c0 c10408e8 34e5ffff 68e0d704  . h.....4...h...
 804a3c0 0868e0d7 040868e0 d704086a 3f68e0d7  .h....h....j?h..
 804a3d0 040868e0 d7040868 60c30408 e80fe5ff  ..h....h`.......
 804a3e0 ffc9c390 5589e583 ec045756 538b7508  ....U.....WVS.u.
 804a3f0 c745fc00 00000089 f70fbe1e 85db7435  .E............t5
 804a400 83fb2775 0b8075fc 01eb1f90 8d742600  ..'u..u......t&.
 804a410 53e80ae4 ffff83c4 0485c075 06837dfc  S..........u..}.
 804a420 00741239 f7740288 1f47460f be1e85db  .t.9.t...GF.....
 804a430 75ceeb01 46803e00 74100fbe 0650e8dd  u...F.>.t....P..
 804a440 e3ffff83 c40485c0 74eac607 0089f08d  ........t.......
 804a450 65f05b5e 5fc9c390 5589e583 ec105756  e.[^_...U.....WV
 804a460 538b5d08 eb0680fa 207f0743 8a1384d2  S.]..... ..C....
 804a470 75f484d2 0f849e03 00008db6 00000000  u...............
 804a480 53e85eff ffff8945 fc83c404 803b2d0f  S.^....E.....;-.
 804a490 846d0300 00833d44 d6040800 745389df  .m....=D....tS..
 804a4a0 31c0fcb9 ffffffff f2aef7d1 83c10751  1..............Q
 804a4b0 e873e8ff ff89c783 c404538d 470450e8  .s........S.G.P.
 804a4c0 0ce5ffff 83c408c7 07000000 008b15cc  ................
 804a4d0 d7040885 d2740989 3aeb0b90 8d742600  .....t..:....t&.
 804a4e0 893dc8d7 0408893d ccd70408 e91b0300  .=.....=........
 804a4f0 008b1514 d8040885 d2741153 526820c4  .........t.SRh .
 804a500 04086a02 e88be7ff ff83c410 5389df31  ..j.........S..1
 804a510 c0fcb9ff fffffff2 aef7d151 e807e8ff  ...........Q....
 804a520 ff83c404 89c252e8 a4e4ffff 83c40889  ......R.........
 804a530 c2891514 d80408c7 0544d604 08010000  .........D......
 804a540 00e9c602 0000833d 14d80408 000f95c0  .......=........
 804a550 8845f083 e001a344 d60408c7 45f80000  .E.....D....E...
 804a560 00008a03 0c20049d 0fbed083 fa137707  ..... ........w.
 804a570 ff24952c c5040853 683fc404 08eb3b90  .$.,...Sh?....;.
 804a580 8b5dfc80 3b00750f 6860c404 086a02e8  .]..;.u.h`...j..
 804a590 00e7ffff 83c40853 e847feff ff8945fc  .......S.G....E.
 804a5a0 6833bc04 0853e8f5 e3ffff89 c683c40c  h3...S..........
 804a5b0 85f6751c 5368dbbc 04086a02 e8d3e6ff  ..u.Sh....j.....
 804a5c0 ff83c40c e9130200 008db426 00000000  ...........&....
 804a5d0 6a026a00 56e8d6e2 ffff56e8 60e2ffff  j.j.V.....V.`...
 804a5e0 8945f46a 006a0056 e8c3e2ff ff8b45f4  .E.j.j.V......E.
 804a5f0 4050e831 e7ffff89 c783c420 566a018b  @P.1....... Vj..
 804a600 45f45057 e867e2ff ff89c283 c41083fa  E.PW.g..........
 804a610 01741253 6898bc04 086a02e8 74e6ffff  .t.Sh....j..t...
 804a620 83c40ceb 158b45f4 c6043800 57e826fe  ......E...8.W.&.
 804a630 ffffbb86 c4040883 c40456e8 d0e2ffff  ..........V.....
 804a640 83c404e9 94010000 8b45fca3 20d80408  .........E.. ...
 804a650 80380075 0f68a0c4 04086a02 e833e6ff  .8.u.h....j..3..
 804a660 ff83c408 ff3520d8 0408e875 fdffff89  .....5 ....u....
 804a670 45fc83c4 04e96201 00008db6 00000000  E.....b.........
 804a680 c70538d8 04080100 0000e94d 01000090  ..8........M....
 804a690 5368cac4 0408e845 e4ffff83 c40885c0  Sh.....E........
 804a6a0 74125368 d0c40408 e833e4ff ff83c408  t.Sh.....3......
 804a6b0 85c07505 bb86c404 08c70544 d6040801  ..u........D....
 804a6c0 000000e9 14010000 e8abfcff ff6a00e8  .............j..
 804a6d0 8ce2ffff 5368d6c4 0408e801 e4ffff83  ....Sh..........
 804a6e0 c40885c0 751ac705 44d60408 00000000  ....u...D.......
 804a6f0 bb86c404 08e9e200 00008db6 00000000  ................
 804a700 c7052cd8 04080100 0000e9cd 00000090  ..,.............
 804a710 c70528d8 04080000 0000e9bd 00000090  ..(.............
 804a720 5368dbc4 0408e8b5 e3ffff83 c40885c0  Sh..............
 804a730 7505bb86 c40408c7 0528d804 08010000  u........(......
 804a740 00e99600 00005368 dfc40408 e88fe3ff  ......Sh........
 804a750 ff83c408 85c07505 bb86c404 08c70530  ......u........0
 804a760 d8040801 000000eb 738db426 00000000  ........s..&....
 804a770 5368e3c4 0408e865 e3ffff83 c40885c0  Sh.....e........
 804a780 7505bb86 c40408c7 45f80100 00005368  u.......E.....Sh
 804a790 e8c40408 e847e3ff ff83c408 85c07505  .....G........u.
 804a7a0 bb86c404 08ff45f8 5368efc4 0408e82d  ......E.Sh.....-
 804a7b0 e3ffff83 c40885c0 7505bb86 c40408ff  ........u.......
 804a7c0 45f85368 f3c40408 e813e3ff ff83c408  E.Sh............
 804a7d0 85c07505 bb86c404 08ff45f8 837df800  ..u.......E..}..
 804a7e0 7e20833d 34d80408 00740f68 00c50408  ~ .=4....t.h....
 804a7f0 6a02e89d e4ffff83 c4088b45 f8a334d8  j..........E..4.
 804a800 04084380 3b000f85 3afdffff 8b5dfc80  ..C.;...:....]..
 804a810 3b000f85 68fcffff 8d65e45b 5e5fc9c3  ;...h....e.[^_..
 804a820 5589e553 8b4d088b 450c8b18 c1e31089  U..S.M..E.......
 804a830 1dc4d704 080fb650 04c1e210 0fb74002  .......P......@.
 804a840 09c28915 c0d70408 eb0b8db6 00000000  ................
 804a850 3c207f07 418a0184 c075f551 e8f7fbff  < ..A....u.Q....
 804a860 ff83c404 833d14d8 04080075 0f687cc5  .....=.....u.h|.
 804a870 04086a02 e81be4ff ff83c408 833d28d8  ..j..........=(.
 804a880 04080075 2a833d2c d8040800 7521833d  ...u*.=,....u!.=
 804a890 34d80408 00751883 3d30d804 0800750f  4....u..=0....u.
 804a8a0 68a0c504 086a02e8 e8e3ffff 83c40883  h....j..........
 804a8b0 3d34d804 08017618 833dc8d7 04080075  =4....v..=.....u
 804a8c0 1868e0c5 04086a02 e8c7e3ff ff83c408  .h....j.........
 804a8d0 833dc8d7 04080074 18833d34 d8040800  .=.....t..=4....
 804a8e0 750f6802 c604086a 02e8a6e3 ffff83c4  u.h....j........
 804a8f0 08ff3514 d80408e8 78e4ffff a134d804  ..5.....x....4..
 804a900 0883c404 83f80174 0ae86ee4 ffffa134  .......t..n....4
 804a910 d8040883 c0fe83f8 017725e8 74eaffff  .........w%.t...
 804a920 833d34d8 04080275 1ce8deee ffffc705  .=4....u........
 804a930 34d80408 00000000 eb0b8db6 00000000  4...............
 804a940 e81becff ffe8ceed ffff8b15 24d80408  ............$...
 804a950 85d27406 891528d8 0408a134 d8040883  ..t...(....4....
 804a960 f8017412 83f80374 0d83f804 74083915  ..t....t....t.9.
 804a970 28d80408 7405e8cd efffffe8 f0f7ffff  (...t...........
 804a980 8b5dfcc9 c38d7600 5589e583 ec185756  .]....v.U.....WV
 804a990 538b5d08 6a2068e0 d704088b 450cff30  S.].j h.....E..0
 804a9a0 e84b0e00 00c705cc d7040800 000000c7  .K..............
 804a9b0 05c8d704 08000000 00c705d4 d7040800  ................
 804a9c0 000000c7 05d0d704 08000000 0083c40c  ................
 804a9d0 bf80d804 0831d289 d0fcb900 040000f3  .....1..........
 804a9e0 abc70544 d8040800 000000c7 0540d804  ...D.........@..
 804a9f0 08000000 00c7053c d8040800 000000c7  .......<........
 804aa00 0560d804 08000000 00c7055c d8040800  .`.........\....
 804aa10 000000c7 0558d804 08000000 00c70554  .....X.........T
 804aa20 d8040800 000000c7 0550d804 08000000  .........P......
 804aa30 00c70510 d8040800 000000c7 051cd804  ................
 804aa40 08000000 00c70518 d8040800 000000c7  ................
 804aa50 0500d804 08000000 00c70504 d8040800  ................
 804aa60 000000c7 050cd804 08000000 00c70508  ................
 804aa70 d8040800 000000c7 0548d804 08000000  .........H......
 804aa80 00c70530 d8040800 000000c7 052cd804  ...0.........,..
 804aa90 08000000 00c70524 d8040800 000000c7  .......$........
 804aaa0 0534d804 08000000 00c70538 d8040800  .4.........8....
 804aab0 000000c7 0514d804 08000000 00c70520  ............... 
 804aac0 d8040800 000000c7 0528d804 08010000  .........(......
 804aad0 0083fb01 7f0ce89d f8ffff6a 01e87ede  ...........j..~.
 804aae0 ffff8b75 0c83c604 8975f031 d28b450c  ...u.....u.1..E.
 804aaf0 83780400 741a8b3e 31c0fcb9 ffffffff  .x..t..>1.......
 804ab00 f2aef7d1 8d540a02 83c60483 3e0075e6  .....T......>.u.
 804ab10 4252e811 e2ffff89 45f489c3 8b75f083  BR......E....u..
 804ab20 c4048b4d 0c837904 00743690 8d742600  ...M..y..t6..t&.
 804ab30 c6032743 ff3653e8 94deffff 83c40889  ..'C.6S.........
 804ab40 df31c0fc b9ffffff fff2aef7 d18d5c0b  .1............\.
 804ab50 ffc60327 43c60320 4383c604 833e0075  ...'C.. C....>.u
 804ab60 cfc643ff 006a00e8 54ddffff 89c6c745  ..C..j..T......E
 804ab70 f8000000 008d55f8 c7420400 000000c7  ......U..B......
 804ab80 45e80000 000083c4 048b7df8 89d389f6  E.........}.....
 804ab90 8d043789 45f889c7 39f77306 ff43048b  ..7.E...9.s..C..
 804aba0 7df8ff45 e8837de8 637ee58d 87006a99  }..E..}.c~....j.
 804abb0 6e8945f8 3dff6999 6e7703ff 42048342  n.E.=.i.nw..B..B
 804abc0 0433528b 4df451e8 54fcffff 31c08d65  .3R.M.Q.T...1..e
 804abd0 dc5b5e5f c9c39090 90909090 90909090  .[^_............
 804abe0 5589e553 e8000000 005b81c3 772a0000  U..S.....[..w*..
 804abf0 8b450889 83e8ffff ff8b5dfc c9c389f6  .E........].....
 804ac00 5589e553 e8000000 005b81c3 572a0000  U..S.....[..W*..
 804ac10 8b83e8ff ffff8b5d fcc9c390 5589e553  .......]....U..S
 804ac20 e8000000 005b81c3 3b2a0000 8b550883  .....[..;*...U..
 804ac30 bbe8ffff ff007414 89d0c1c0 1031d025  ......t......1.%
 804ac40 ffff00ff c1c218c1 e80831c2 89d08b5d  ..........1....]
 804ac50 fcc9c390 5589e553 e8000000 005b81c3  ....U..S.....[..
 804ac60 032a0000 8b450883 bbe8ffff ff007412  .*...E........t.
 804ac70 89c2c1fa 080fb6d2 c1e00825 00ff0000  ...........%....
 804ac80 09d08b5d fcc9c390 5589e557 5653e800  ...]....U..WVS..
 804ac90 0000005b 81c3cd29 00008b7d 0c8b7510  ...[...)...}..u.
 804aca0 c1ee0285 f67e1dff 3783c704 e86bffff  .....~..7....k..
 804acb0 ff8b5508 890283c2 04895508 83c4044e  ..U.......U....N
 804acc0 85f67fe3 8d65f45b 5e5fc9c3 90909090  .....e.[^_......
 804acd0 5589e583 ec045756 8b750c8b 7d10c746  U.....WV.u..}..F
 804ace0 0c000000 00c74608 00000000 c7460400  ......F......F..
 804acf0 000000c7 06000000 00c64613 00c64612  ..........F...F.
 804ad00 00c64611 00c64610 00c64617 00c64616  ..F...F...F...F.
 804ad10 00c64614 008b4d08 8a013c5c 75328079  ..F...M...<\u2.y
 804ad20 015c752c 890e83c1 02894d08 eb0c89f6  .\u,......M.....
 804ad30 3c5c740c ff45088b 4d088a01 84c075f0  <\t..E..M.....u.
 804ad40 8a4d082a 0e884e10 8b5508eb 618d7600  .M.*..N..U..a.v.
 804ad50 8b550884 c074570f be0239f8 7450803a  .U...tW...9.tP.:
 804ad60 3a75453b 55087440 833e0075 3b8b4d08  :uE;U.t@.>.u;.M.
 804ad70 890e4288 d028c888 4610803a 2f750480  ..B..(..F..:/u..
 804ad80 4e14400f b64e1489 4dfc0fbe 0239f875  N.@..N..M....9.u
 804ad90 078a45fc 0c18eb05 8a45fc0c 20884614  ..E......E.. .F.
 804ada0 89550880 3a007406 42803a00 75a98b4d  .U..:.t.B.:.u..M
 804adb0 080fbe01 39f87508 804e1418 41894d08  ....9.u..N..A.M.
 804adc0 8b4d0889 4e04803a 00741c90 8d742600  .M..N..:.t...t&.
 804add0 0fbe0239 f8750a8d 4a01894d 08804e14  ...9.u..J..M..N.
 804ade0 1042803a 0075e98b 4d08894e 0880392e  .B.:.u..M..N..9.
 804adf0 75228a41 0184c074 0a3c2e75 17807902  u".A...t.<.u..y.
 804ae00 00751180 4e141089 550888d1 2a4e0488  .u..N...U...*N..
 804ae10 4e11eb37 8b4d0839 4e047524 c7460400  N..7.M.9N.u$.F..
 804ae20 000000eb 268d4a01 894e0c2a 55088a46  ....&.J..N.*U..F
 804ae30 1228d0fe c8884613 885612eb 268d7600  .(....F..V..&.v.
 804ae40 8a45082a 4604fec8 88461188 d02a4508  .E.*F....F...*E.
 804ae50 8846123b 5508740b 4a803a2e 74c73b55  .F.;U.t.J.:.t.;U
 804ae60 0875f589 f9884e16 8d65f45e 5fc9c390  .u....N..e.^_...
 804ae70 5589e557 568b7510 0fbe0e46 85c97451  U..WV.u....F..tQ
 804ae80 eb040fbe 0e4683f9 2074f731 d23b550c  .....F.. t.1.;U.
 804ae90 7d1a8b7d 080fbe04 3a39c875 0a420fbe  }..}....:9.u.B..
 804aea0 0e463b55 0c7ceb3b 550c7c1c 83f92074  .F;U.|.;U.|... t
 804aeb0 0485c975 13b80100 0000eb17 8d742600  ...u.........t&.
 804aec0 85c9740d 0fbe0e46 83f92075 f385c975  ..t....F.. u...u
 804aed0 b531c08d 65f85e5f c9c389f6 5589e557  .1..e.^_....U..W
 804aee0 5653e800 0000005b 81c37927 00008b7d  VS.....[..y'...}
 804aef0 088b550c 8a521489 d6f7c620 00000074  ..U..R..... ...t
 804af00 098b4d0c 0fb64110 01c78a07 3c3a7434  ..M...A.....<:t4
 804af10 3c26742c 3c247428 3c5e7410 3c40740c  <&t,<$t(<^t.<@t.
 804af20 f7c61000 00000f85 50010000 89f280e2  ........P.......
 804af30 208b4d0c 885114eb 668db426 00000000   .M..Q..f..&....
 804af40 3c3a753c 8b550c8b 3285f675 0d8b4d08  <:u<.U..2..u..M.
 804af50 890a89ce eb0484c0 7407478a 073c2e75  ........t.G..<.u
 804af60 f53c2e75 014785f6 740c89f8 8b550c2a  .<.u.G..t....U.*
 804af70 02fec888 42108b4d 0cc64114 00eb0c90  ....B..M..A.....
 804af80 89f280e2 208b4d0c 8851148a 073c2674  .... .M..Q...<&t
 804af90 043c2475 0383c702 8b550c80 4a140889  .<$u.....U..J...
 804afa0 fe897d08 89f98b55 0c894a04 80390074  ..}....U..J..9.t
 804afb0 11803f2e 75068975 088d7701 47803f00  ..?.u..u..w.G.?.
 804afc0 75ef3975 08746b8b 4d105189 f02b4508  u.9u.tk.M.Q..+E.
 804afd0 48508b55 0852e895 feffff83 c40c85c0  HP.U.R..........
 804afe0 74208b4d 088b550c 894a0c89 f028c8fe  t .M..U..J...(..
 804aff0 c8884213 89720889 f889f128 c8884212  ..B..r.....(..B.
 804b000 eb4d8b55 105289f8 29f05056 e85ffeff  .M.U.R..).PV._..
 804b010 ff85c074 1d8b4d0c 89710c89 f889f228  ...t..M..q.....(
 804b020 d0884113 8b550889 510889f0 28d0fec8  ..A..U..Q...(...
 804b030 eb1a8b4d 0cc7410c 00000000 c6411300  ...M..A......A..
 804b040 89750889 f2895108 89f828d0 8841128b  .u....Q...(..A..
 804b050 4d088b55 0c394a04 750dc742 04000000  M..U.9J.u..B....
 804b060 00c64211 00eb0e8a 45088b4d 0c2a4104  ..B.....E..M.*A.
 804b070 fec88841 118b550c c642162e 8d65f45b  ...A..U..B...e.[
 804b080 5e5fc9c3 5589e583 ec045756 8b45088b  ^_..U.....WV.E..
 804b090 750cf646 14100f85 b9000000 c6461400  u..F.........F..
 804b0a0 c7460400 000000c7 06000000 00c64610  .F............F.
 804b0b0 00c64611 0089c1c7 45fc0000 00008038  ..F.....E......8
 804b0c0 00743c80 393a7531 837dfc00 752939c1  .t<.9:u1.}..u)9.
 804b0d0 741e833e 00751989 0688ca28 c288d0fe  t..>.u.....(....
 804b0e0 c0884610 804e1408 8b560489 55fceb07  ..F..N...V..U...
 804b0f0 40894604 8945fc89 c8418039 0075c48d  @.F..E...A.9.u..
 804b100 7801397d fc7509c7 46040000 0000eb0e  x.9}.u..F.......
 804b110 837dfc00 740888c2 2a560488 56118038  .}..t...*V..V..8
 804b120 3a750289 f8894608 28c189cf 884e128b  :u....F.(....N..
 804b130 4e0c85c9 741b39c8 730c89fa feca2a56  N...t.9.s.....*V
 804b140 13885612 eb0bc746 0c000000 00c64613  ..V....F......F.
 804b150 00c64616 3a8d65f4 5e5fc9c3 5589e583  ..F.:.e.^_..U...
 804b160 ec045756 53e80000 00005b81 c3f62400  ..WVS.....[...$.
 804b170 008b7d08 8b75108a 46152407 0fb6c889  ..}..u..F.$.....
 804b180 4dfc803f 5c741c0f be0750e8 e0d7ffff  M..?\t....P.....
 804b190 83c40485 c0742980 7f013a75 23807f02  .....t)...:u#...
 804b1a0 5c751d6a 5c5657e8 24fbffff 8a461424  \u.j\VW.$....F.$
 804b1b0 080c0288 4615e991 00000090 8d742600  ....F........t&.
 804b1c0 6a2f5657 e807fbff ff83c40c 837dfc03  j/VW.........}..
 804b1d0 742e8a56 14f6c240 7526833e 007531f6  t..V...@u&.>.u1.
 804b1e0 c210742c 837dfc01 75168a07 3c3a7420  ..t,.}..u...<:t 
 804b1f0 3c24741c 3c267418 3c5e7414 3c407410  <$t.<&t.<^t.<@t.
 804b200 8a461424 080c0388 4615eb40 8d742600  .F.$....F..@.t&.
 804b210 837dfc01 750cff75 0c5657e8 bcfcffff  .}..u..u.VW.....
 804b220 eb1e837d fc047509 5657e855 feffffeb  ...}..u.VW.U....
 804b230 0f837dfc 02750c6a 5c5657e8 90faffff  ..}..u.j\VW.....
 804b240 8a561480 e2080a55 fc885615 8d65f05b  .V.....U..V..e.[
 804b250 5e5fc9c3 5589e553 e8000000 005b81c3  ^_..U..S.....[..
 804b260 03240000 8b4510c6 40150350 ff750cff  .$...E..@..P.u..
 804b270 7508e8e5 feffff8b 5dfcc9c3 5589e583  u.......]...U...
 804b280 ec045756 8b55088b 750c8b45 183b5514  ..WV.U..u..E.;U.
 804b290 743089c7 81e7ff00 0000c1e8 088945fc  t0............E.
 804b2a0 837d1000 7e1c8a06 880225ff 00000046  .}..~.....%....F
 804b2b0 39f87505 8a4dfc88 0a42ff4d 103b5514  9.u..M...B.M.;U.
 804b2c0 75de89d0 8d65f45e 5fc9c390 5589e583  u....e.^_...U...
 804b2d0 ec1c5756 53e80000 00005b81 c3862300  ..WVS.....[...#.
 804b2e0 008b7508 8a461589 c683e607 8975fc8b  ..u..F.......u..
 804b2f0 750c8975 f88365f8 108b7510 8975f48b  u..u..e...u..u..
 804b300 75140175 f48b4d10 83650c07 7507c745  u..u..M..e..u..E
 804b310 0c030000 00837dfc 01741583 7d0c0175  ......}..t..}..u
 804b320 1fc745f0 2e2f0000 eb1d8db6 00000000  ..E../..........
 804b330 837d0c01 740ac745 f02f2e00 00eb0890  .}..t..E./......
 804b340 c745f000 0000008b 75088b16 85d20f84  .E......u.......
 804b350 c0000000 6a008b75 f4568b75 080fb646  ....j..u.V.u...F
 804b360 1050528b 751056e8 10ffffff 89c183c4  .PR.u.V.........
 804b370 14837d0c 0374178b 75fc3975 0c740f80  ..}..t..u.9u.t..
 804b380 79ff3a74 093b4df4 7404c601 3a418b75  y.:t.;M.t...:A.u
 804b390 088a4614 a840743c 837d0c01 75123b4d  ..F..@t<.}..u.;M
 804b3a0 f40f84c1 000000c6 013ae9b8 00000090  .........:......
 804b3b0 837d0c04 0f84ae00 00003b4d f40f84a5  .}........;M....
 804b3c0 0000008b 750c8a84 1ebfefff ff8801e9  ....u...........
 804b3d0 93000000 a808750a 837d0c03 0f858600  ......u..}......
 804b3e0 0000837d 0c017513 837dfc01 7504a820  ...}..u..}..u.. 
 804b3f0 74093b4d f47404c6 01244183 7d0c0474  t.;M.t...$A.}..t
 804b400 673b4df4 74628b75 0c8a841e bfefffff  g;M.tb.u........
 804b410 8801eb53 a8087438 837d0c01 75128b75  ...S..t8.}..u..u
 804b420 f4397510 740a8b75 10c60624 8b4d1041  .9u.t..u...$.M.A
 804b430 837d0c04 74323b4d f4742d8b 750c8a84  .}..t2;M.t-.u...
 804b440 1ebfefff ff8801eb 1e8db426 00000000  ...........&....
 804b450 837d0c04 75128b75 f4397510 740a8b75  .}..u..u.9u.t..u
 804b460 10c6063a 8b4d1041 8b75088b 460485c0  ...:.M.A.u..F...
 804b470 0f841601 00008945 e40fb646 110345e4  .......E...F..E.
 804b480 8945ec8b 75fc0fbe b41ebfef ffff8975  .E..u..........u
 804b490 e88b7de4 39c70f87 f0000000 8d742600  ..}.9........t&.
 804b4a0 3b7dec73 0c0fbe07 3b45e80f 85d10000  ;}.s....;E......
 804b4b0 0089fa2b 55e4837d fc047504 85d27431  ...+U..}..u...t1
 804b4c0 837dfc01 750d83fa 0175088b 75e4803e  .}..u....u..u..>
 804b4d0 5e741e8b 45fc83c0 fe83f801 774283fa  ^t..E.......wB..
 804b4e0 02753d8b 75e4803e 2e753580 7e012e75  .u=.u..>.u5.~..u
 804b4f0 2f837d0c 01750b3b 4df47452 c6015e41  /.}..u.;M.tR..^A
 804b500 eb4c837d 0c047462 3b4df474 41c6012e  .L.}..tb;M.tA...
 804b510 413b4df4 7438c601 2e41eb32 8d742600  A;M.t8...A.2.t&.
 804b520 83fa0175 118b75fc 8a841ec5 efffff8b  ...u..u.........
 804b530 75e43806 74468b75 f0568b75 f456528b  u.8.tF.u.V.u.VR.
 804b540 75e45651 e833fdff ff89c183 c414837d  u.VQ.3.........}
 804b550 0c047416 3b7dec72 118b7508 0fb64612  ..t.;}.r..u...F.
 804b560 0fb65613 01d085c0 7e123b4d f4740d8b  ..V.....~.;M.t..
 804b570 750c8a84 1ebfefff ff880141 8d770189  u..........A.w..
 804b580 75e4473b 7dec0f86 14ffffff 88c82a45  u.G;}.........*E
 804b590 108b7508 88461783 7d0c0475 103b4d10  ..u..F..}..u.;M.
 804b5a0 740b8079 ff3a7505 fec88846 17837d0c  t..y.:u....F..}.
 804b5b0 01753a8b 7508807e 13007431 f6461440  .u:.u..~..t1.F.@
 804b5c0 752b6a00 8b75f456 8b75080f b6461350  u+j..u.V.u...F.P
 804b5d0 ff760c51 e8a3fcff ff89c183 c414807e  .v.Q...........~
 804b5e0 12007409 3b4df474 04c6012e 418b75f0  ..t.;M.t....A.u.
 804b5f0 568b75f4 568b7508 0fb64612 50ff7608  V.u.V.u...F.P.v.
 804b600 51e876fc ffff89c1 83c41480 7e130074  Q.v.........~..t
 804b610 3c837d0c 017506f6 46144074 303b4df4  <.}..u..F.@t0;M.
 804b620 741289ca 41837d0c 017505b0 2feb0390  t...A.}..u../...
 804b630 b02e8802 6a008b75 f4568b75 080fb646  ....j..u.V.u...F
 804b640 1350ff76 0c51e831 fcffff89 c1837df8  .P.v.Q.1......}.
 804b650 00743683 7d0c0475 0e3b4d10 76208079  .t6.}..u.;M.v .y
 804b660 ff3a751a 49eb173b 4d107412 3b4df474  .:u.I..;M.t.;M.t
 804b670 0d8b750c 8a841ebf efffff88 014188c8  ..u..........A..
 804b680 2a45108b 75088846 173b4df4 740ac601  *E..u..F.;M.t...
 804b690 002b4d10 89c8eb05 b8ffffff ff8d65d8  .+M...........e.
 804b6a0 5b5e5fc9 c38d7600 5589e557 568b7508  [^_...v.U..WV.u.
 804b6b0 8b7d108b 550c807a 10007408 8a0289f1  .}..U..z..t.....
 804b6c0 28c8eb02 31c08807 8b550c80 7a110074  (...1....U..z..t
 804b6d0 0f8a4204 89f128c8 eb088db6 00000000  ..B...(.........
 804b6e0 31c08847 018b4d0c 8a510889 f128ca88  1..G..M..Q...(..
 804b6f0 57028b55 0c807a13 0074078a 420c28c8  W..U..z..t..B.(.
 804b700 eb0231c0 8847038b 4d0c8a41 10884704  ..1..G..M..A..G.
 804b710 8a411188 47058a41 12884706 8a411388  .A..G..A..G..A..
 804b720 47078a41 14884708 8a411588 47098a41  G..A..G..A..G..A
 804b730 1688470a 8a411788 470b8d65 f85e5fc9  ..G..A..G..e.^_.
 804b740 c38d7600 5589e556 8b75088b 550c8b4d  ..v.U..V.u..U..M
 804b750 10807a04 0074090f b60201f0 eb0489f6  ..z..t..........
 804b760 31c08901 807a0500 74080fb6 420101f0  1....z..t...B...
 804b770 eb0231c0 8941040f b6420201 f0894108  ..1..A...B....A.
 804b780 807a0700 740a0fb6 420301f0 eb0489f6  .z..t...B.......
 804b790 31c08941 0c8a4204 8841108a 42058841  1..A..B..A..B..A
 804b7a0 118a4206 8841128a 42078841 138a4208  ..B..A..B..A..B.
 804b7b0 8841148a 42098841 158a420a 8841168a  .A..B..A..B..A..
 804b7c0 420b8841 178b75fc c9c389f6 5589e58b  B..A..u.....U...
 804b7d0 450885c0 740c8a40 09240725 ff000000  E...t..@.$.%....
 804b7e0 eb05b803 000000c9 c3909090 90909090  ................
 804b7f0 5589e583 ec0c5756 53e80000 00005b81  U.....WVS.....[.
 804b800 c3621e00 00837d0c 00740683 7d10007f  .b....}..t..}...
 804b810 0f8b4508 e9d20000 008db426 00000000  ..E........&....
 804b820 8b7d0831 c0fcb9ff fffffff2 aef7d189  .}.1............
 804b830 4df84989 4df48b75 0801ce89 75fc83f9  M.I.M..u....u...
 804b840 047e3b89 f283c2fc 89d08dbb cbefffff  .~;.............
 804b850 b9050000 0089c6fc a800f3a6 74148dbb  ............t...
 804b860 d0efffff b9050000 0089c6fc a800f3a6  ................
 804b870 750c8955 fc8b45f8 83c0fb89 45f48b55  u..U..E.....E..U
 804b880 f483c2fe 782d8b4d 080fbe3c 0a83ff5c  ....x-.M...<...\
 804b890 740f83ff 2f740a83 ff3a7405 83ff2e75  t.../t...:t....u
 804b8a0 0f8b7508 8d541601 895508eb 068d7600  ..u..T...U....v.
 804b8b0 4a79d38b 45fc2b45 088945f4 8b55104a  Jy..E.+E..E..U.J
 804b8c0 39d07e03 8955f483 7df4007e 118b4df4  9.~..U..}..~..M.
 804b8d0 518b7508 568b450c 50e8b2d0 ffff8b4d  Q.u.V.E.P......M
 804b8e0 0c8b75f4 c6040e00 8b450c8d 65e85b5e  ..u......E..e.[^
 804b8f0 5fc9c390 90909090 90909090 90909090  _...............
 804b900 5589e556 53e80000 00005b81 c3561d00  U..VS.....[..V..
 804b910 008b5508 8b751085 d275068d 93d6efff  ..U..u...u......
 804b920 ff8b450c 89460452 e823d0ff ff890683  ..E..F.R.#......
 804b930 c40485c0 750a31c0 eb0c8db6 00000000  ....u.1.........
 804b940 56e80a00 00008d65 f85b5ec9 c38d7600  V......e.[^...v.
 804b950 5589e557 5653e800 0000005b 81c3051d  U..WVS.....[....
 804b960 00008b7d 08eb198d 700b56ff 7704e81d  ...}....p.V.w...
 804b970 01000083 c40885c0 740689f0 eb1289f6  ........t.......
 804b980 ff37e839 d0ffff83 c40485c0 75d931c0  .7.9........u.1.
 804b990 8d65f45b 5e5fc9c3 5589e553 e8000000  .e.[^_..U..S....
 804b9a0 005b81c3 bf1c0000 8b450885 c0740c8b  .[.......E...t..
 804b9b0 0085c074 0650e885 cfffff8b 5dfcc9c3  ...t.P......]...
 804b9c0 5589e583 ec5c5756 53e80000 00005b81  U....\WVS.....[.
 804b9d0 c3921c00 008d45a8 508b5508 526a03e8  ......E.P.U.Rj..
 804b9e0 acceffff 83c40c85 c075198b 45b82500  .........u..E.%.
 804b9f0 f000003d 00400000 741fb811 000000e9  ...=.@..t.......
 804ba00 7f000000 68ff0100 008b5508 52e8cecd  ....h.....U.R...
 804ba10 ffff83c4 0885c075 0731c0eb 668d7600  .......u.1..f.v.
 804ba20 e80bceff ff8945a4 8b3883ff 0275528b  ......E..8...uR.
 804ba30 83900000 000fbe00 508b5508 52e8dece  ........P.U.R...
 804ba40 ffff89c6 83c40885 f6741bc6 06008b55  .........t.....U
 804ba50 0852e869 ffffff89 c78b8390 0000008a  .R.i............
 804ba60 00880683 c40485ff 751768ff 0100008b  ........u.h.....
 804ba70 550852e8 68cdffff 85c07405 8b55a48b  U.R.h.....t..U..
 804ba80 3a89f88d 65985b5e 5fc9c390 90909090  :...e.[^_.......
 804ba90 5589e583 ec045756 53e80000 00005b81  U.....WVS.....[.
 804baa0 c3c21b00 008b7d08 8b750c90 8d742600  ......}..u...t&.
 804bab0 803f2a75 20478a07 3c2a74f9 803e0074  .?*u G..<*t..>.t
 804bac0 1b5657e8 c8ffffff 83c40885 c0754546  .VW..........uEF
 804bad0 803e0075 ec8a0780 3e00750c 84c00f94  .>.u....>.u.....
 804bae0 c025ff00 0000eb31 3c3f7424 0fbe0750  .%.....1<?t$...P
 804baf0 e85bcdff ff8945fc 0fbe0650 e84fcdff  .[....E....P.O..
 804bb00 ff83c408 3945fc74 0731c0eb 0c8d7600  ....9E.t.1....v.
 804bb10 4746eb9c b8010000 008d65f0 5b5e5fc9  GF........e.[^_.
 804bb20 c3909090 90909090 90909090 90909090  ................
 804bb30 5589e553 bb50d604 08833d50 d60408ff  U..S.P....=P....
 804bb40 740c8b03 ffd083c3 fc833bff 75f48b5d  t.........;.u..]
 804bb50 fcc9c390 5589e5c9 c3909090           ....U.......    
Contents of section .fini:
 804bb5c 5589e553 e8000000 005b81c3 fb1a0000  U..S.....[......
 804bb6c e89fceff ff8b5dfc c9c3               ......]...      
Contents of section .rodata:
 804bb80 03000000 01000200 00000000 00000000  ................
 804bb90 00000000 00000000 00000000 00000000  ................
 804bba0 3c756e73 65742064 6174653e 00414f46  <unset date>.AOF
 804bbb0 204c6962 72617269 616e0025 733a2000   Librarian.%s: .
 804bbc0 28576172 6e696e67 29200028 4572726f  (Warning) .(Erro
 804bbd0 72292020 20002846 6174616c 29202020  r)   .(Fatal)   
 804bbe0 000a004d 656d6f72 79207265 71756573  ...Memory reques
 804bbf0 74202575 20746f6f 20626967 2e000000  t %u too big....
 804bc00 5a65726f 206f7220 6e656761 74697665  Zero or negative
 804bc10 206d656d 6f727920 72657175 65737420   memory request 
 804bc20 25642e00 4f757420 6f66206d 656d6f72  %d..Out of memor
 804bc30 792e0072 6200556e 61626c65 20746f20  y..rb.Unable to 
 804bc40 6f70656e 206c6962 72617279 2025732e  open library %s.
 804bc50 004c4942 5f444952 59004f46 4c5f5359  .LIB_DIRY.OFL_SY
 804bc60 4d54004c 49425f56 52534e00 4c49425f  MT.LIB_VRSN.LIB_
 804bc70 54494d45 004f464c 5f54494d 45002573  TIME.OFL_TIME.%s
 804bc80 20697320 6e6f7420 61206c69 62726172   is not a librar
 804bc90 79206669 6c652e00 556e6162 6c652074  y file..Unable t
 804bca0 6f207265 61642025 732e0044 75706c69  o read %s..Dupli
 804bcb0 63617465 206c6962 72617279 206d656d  cate library mem
 804bcc0 62657220 25732e00 4e6f206d 61746368  ber %s..No match
 804bcd0 20666f72 2025732e 006f0043 616e2774   for %s..o.Can't
 804bce0 2066696e 64206669 6c652025 732e002f   find file %s../
 804bcf0 77620055 6e61626c 6520746f 206f7065  wb.Unable to ope
 804bd00 6e206669 6c652025 732e0055 6e61626c  n file %s..Unabl
 804bd10 6520746f 20777269 74652066 696c6520  e to write file 
 804bd20 25732e00 4572726f 72207772 6974696e  %s..Error writin
 804bd30 67206669 6c652025 732e005a 65726f2d  g file %s..Zero-
 804bd40 6c656e67 74682066 696c653a 20257300  length file: %s.
 804bd50 4c49425f 44415441 00000000 00000000  LIB_DATA........
 804bd60 4c696272 61727920 6d656d62 65722025  Library member %
 804bd70 73206861 73206469 66666572 656e7420  s has different 
 804bd80 62797465 7365782e 00000000 00000000  bytesex.........
 804bd90 00000000 00000000 00000000 00000000  ................
 804bda0 4c696272 61727920 6d656d62 65722025  Library member %
 804bdb0 73206973 206e6f74 20612063 68756e6b  s is not a chunk
 804bdc0 2066696c 652e004f 424a5f48 45414400   file..OBJ_HEAD.
 804bdd0 42616420 6c696272 61727920 6d656d62  Bad library memb
 804bde0 65722025 732e004f 424a5f53 594d5400  er %s..OBJ_SYMT.
 804bdf0 4e6f2073 796d626f 6c207461 626c6520  No symbol table 
 804be00 696e2025 732e004f 424a5f53 54525400  in %s..OBJ_STRT.
 804be10 4e6f2073 7472696e 67207461 626c6520  No string table 
 804be20 696e2025 732e004e 6f206578 706f7274  in %s..No export
 804be30 65642073 796d626f 6c732069 6e202573  ed symbols in %s
 804be40 2e000000 00000000 00000000 00000000  ................
 804be50 00000000 00000000 00000000 00000000  ................
 804be60 53796d62 6f6c2074 61626c65 20287369  Symbol table (si
 804be70 7a652025 6c752920 746f6f20 62696720  ze %lu) too big 
 804be80 696e2025 732e0000 00000000 00000000  in %s...........
 804be90 00000000 00000000 00000000 00000000  ................
 804bea0 0a466f72 6d617420 76657273 696f6e3a  .Format version:
 804beb0 20286e6f 20766572 73696f6e 206e756d   (no version num
 804bec0 62657229 0a000a46 6f726d61 74207665  ber)...Format ve
 804bed0 7273696f 6e3a2025 640a004c 61737420  rsion: %d..Last 
 804bee0 4d6f6469 66696361 74696f6e 3a202573  Modification: %s
 804bef0 0a000a43 6f6e7465 6e74733a 0a0a0020  ...Contents:... 
 804bf00 20252d34 30732025 31306420 20202573   %-40s %10d   %s
 804bf10 0a000a45 6e64206f 66204c69 62726172  ...End of Librar
 804bf20 790a004e 6f206578 7465726e 616c2073  y..No external s
 804bf30 796d626f 6c207461 626c652e 00000000  ymbol table.....
 804bf40 45787465 726e616c 2053796d 626f6c20  External Symbol 
 804bf50 5461626c 652c2067 656e6572 61746564  Table, generated
 804bf60 3a202573 0a0a0020 20252d34 30732066  : %s...  %-40s f
 804bf70 726f6d20 20202573 0a000a45 6e64206f  rom   %s...End o
 804bf80 66205461 626c650a 00427569 6c64206e  f Table..Build n
 804bf90 756d6265 72203133 3000342e 35302028  umber 130.4.50 (
 804bfa0 41524d20 4c746420 53445432 2e353129  ARM Ltd SDT2.51)
 804bfb0 00000000 00000000 00000000 00000000  ................
 804bfc0 25732076 65727369 6f6e2025 73205b25  %s version %s [%
 804bfd0 735d0a20 20202020 20202d20 414f4620  s].       - AOF 
 804bfe0 6c696272 61727920 63726561 74696f6e  library creation
 804bff0 20616e64 206d6169 6e74656e 616e6365   and maintenance
 804c000 20746f6f 6c0a0a43 6f6d6d61 6e642066   tool..Command f
 804c010 6f726d61 743a0a0a 2573206f 7074696f  ormat:..%s optio
 804c020 6e73206c 69627261 7279205b 2066696c  ns library [ fil
 804c030 655f6c69 7374207c 206d656d 6265725f  e_list | member_
 804c040 6c697374 205d0a0a 00000000 00000000  list ]..........
 804c050 00000000 00000000 00000000 00000000  ................
 804c060 57696c64 63617264 73202725 63272061  Wildcards '%c' a
 804c070 6e642027 2a27206d 61792062 65207573  nd '*' may be us
 804c080 65642069 6e203c6d 656d6265 725f6c69  ed in <member_li
 804c090 73743e0a 0a000000 00000000 00000000  st>.............
 804c0a0 4f707469 6f6e733a 2d0a0a2d 63202020  Options:-..-c   
 804c0b0 20202043 72656174 65206120 6e657720     Create a new 
 804c0c0 6c696272 61727920 636f6e74 61696e69  library containi
 804c0d0 6e672066 696c6573 20696e20 3c66696c  ng files in <fil
 804c0e0 655f6c69 73743e2e 0a2d6920 20202020  e_list>..-i     
 804c0f0 20496e73 65727420 66696c65 7320696e   Insert files in
 804c100 203c6669 6c655f6c 6973743e 2c207265   <file_list>, re
 804c110 706c6163 65206578 69737469 6e67206d  place existing m
 804c120 656d6265 7273206f 66207468 65207361  embers of the sa
 804c130 6d65206e 616d652e 0a2d6420 20202020  me name..-d     
 804c140 2044656c 65746520 74686520 6d656d62   Delete the memb
 804c150 65727320 696e203c 6d656d62 65725f6c  ers in <member_l
 804c160 6973743e 2e0a2d65 20202020 20204578  ist>..-e      Ex
 804c170 74726163 74206d65 6d626572 7320696e  tract members in
 804c180 203c6d65 6d626572 5f6c6973 743e2070   <member_list> p
 804c190 6c616369 6e672069 6e206669 6c657320  lacing in files 
 804c1a0 6f662074 68652073 616d6520 6e616d65  of the same name
 804c1b0 2e0a0000 00000000 00000000 00000000  ................
 804c1c0 2d6f2020 20202020 41646420 616e2065  -o      Add an e
 804c1d0 78746572 6e616c20 73796d62 6f6c2074  xternal symbol t
 804c1e0 61626c65 20746f20 616e206f 626a6563  able to an objec
 804c1f0 74206c69 62726172 79202844 45464155  t library (DEFAU
 804c200 4c54292e 0a2d6e20 20202020 20446f20  LT)..-n      Do 
 804c210 6e6f7420 61646420 616e2065 78746572  not add an exter
 804c220 6e616c20 73796d62 6f6c2074 61626c65  nal symbol table
 804c230 20746f20 616e206f 626a6563 74206c69   to an object li
 804c240 62726172 792e0a2d 70202020 20202052  brary..-p      R
 804c250 65737065 63742070 61746873 206f6620  espect paths of 
 804c260 66696c65 7320616e 64206f62 6a656374  files and object
 804c270 732e0a2d 6c202020 2020204c 69737420  s..-l      List 
 804c280 6c696272 6172792c 206d6179 20626520  library, may be 
 804c290 73706563 69666965 64207769 74682061  specified with a
 804c2a0 6e79206f 74686572 206f7074 696f6e2e  ny other option.
 804c2b0 0a2d7320 20202020 204c6973 74207379  .-s      List sy
 804c2c0 6d626f6c 20746162 6c652c20 6d617920  mbol table, may 
 804c2d0 62652073 70656369 66696564 20776974  be specified wit
 804c2e0 6820616e 79206f74 68657220 6f707469  h any other opti
 804c2f0 6f6e2e0a 2d742064 69722020 45787472  on..-t dir  Extr
 804c300 61637420 66696c65 7320746f 203c6469  act files to <di
 804c310 723e2064 69726563 746f7279 2e0a2d76  r> directory..-v
 804c320 2066696c 65205461 6b652061 64646974   file Take addit
 804c330 696f6e61 6c206172 67756d65 6e747320  ional arguments 
 804c340 66726f6d 20766961 2066696c 652e0a0a  from via file...
 804c350 00000000 00000000 00000000 00000000  ................
 804c360 4578616d 706c6573 3a2d0a0a 20202020  Examples:-..    
 804c370 20202020 2573202d 63206d79 6c696220      %s -c mylib 
 804c380 6f626a31 206f626a 32206f62 6a332e2e  obj1 obj2 obj3..
 804c390 2e0a2020 20202020 20202573 202d6520  ..        %s -e 
 804c3a0 6d796c69 62202563 736f7274 2a0a2020  mylib %csort*.  
 804c3b0 20202020 20202573 202d6420 6d796c69        %s -d myli
 804c3c0 62206861 73682e6f 0a202020 20202020  b hash.o.       
 804c3d0 20257320 2d69206d 796c6962 20717569   %s -i mylib qui
 804c3e0 636b5f73 6f72742e 6f207175 69636b5f  ck_sort.o quick_
 804c3f0 68617368 312e6f0a 20202020 20202020  hash1.o.        
 804c400 2573202d 6c202d73 20616e73 696c6962  %s -l -s ansilib
 804c410 0a0a0000 00000000 00000000 00000000  ................
 804c420 4d756c74 69706c65 206c6962 72617269  Multiple librari
 804c430 65733a20 25732061 6d642025 732e0055  es: %s amd %s..U
 804c440 6e726563 6f676e69 73656420 6f707469  nrecognised opti
 804c450 6f6e2873 29202d25 732e0000 00000000  on(s) -%s.......
 804c460 4e6f2066 696c656e 616d6520 73757070  No filename supp
 804c470 6c696564 20666f72 202d7669 61206f70  lied for -via op
 804c480 74696f6e 2e002000 00000000 00000000  tion.. .........
 804c490 00000000 00000000 00000000 00000000  ................
 804c4a0 4e6f2064 69726563 746f7279 20706174  No directory pat
 804c4b0 68207375 70706c69 65642066 6f72202d  h supplied for -
 804c4c0 64206f70 74696f6e 2e006669 6c657300  d option..files.
 804c4d0 6d656d62 2a006c69 622a006f 622a0073  memb*.lib*.ob*.s
 804c4e0 792a0069 6e732a00 64656c65 742a0065  y*.ins*.delet*.e
 804c4f0 782a0063 722a0000 00000000 00000000  x*.cr*..........
 804c500 4f6e6c79 206f6e65 206f6620 2d632c20  Only one of -c, 
 804c510 2d692c20 2d642061 6e64202d 65206d61  -i, -d and -e ma
 804c520 79206265 20757365 642e0000 c2a70408  y be used.......
 804c530 8ea70408 a8a70408 90a60408 77a50408  ............w...
 804c540 c8a60408 70a70408 77a50408 77a50408  ....p...w...w...
 804c550 d4a60408 90a60408 10a70408 20a70408  ............ ...
 804c560 80a60408 77a50408 77a50408 46a70408  ....w...w...F...
 804c570 48a60408 77a50408 80a50408 4e6f206c  H...w.......No l
 804c580 69627261 72792066 696c6520 73706563  ibrary file spec
 804c590 69666965 642e0000 00000000 00000000  ified...........
 804c5a0 506c6561 73652075 73652061 74206c65  Please use at le
 804c5b0 61737420 6f6e6520 6f66202d 632c202d  ast one of -c, -
 804c5c0 692c202d 642c202d 652c202d 6f2c202d  i, -d, -e, -o, -
 804c5d0 6c206f72 202d732e 00000000 00000000  l or -s.........
 804c5e0 4e6f2066 696c6520 6f72206d 656d6265  No file or membe
 804c5f0 72206c69 73742073 70656369 66696564  r list specified
 804c600 2e00496e 76616c69 64206669 6c65206f  ..Invalid file o
 804c610 72206d65 6d626572 206c6973 742e0000  r member list...
 804c620 2e5c2f3a 0000402e 2e00002e 65786500  .\/:..@.....exe.
 804c630 2e455845 002f2e00                    .EXE./..        
Contents of section .data:
 804d638 00000000 5cd60408 00000000 00000000  ....\...........
 804d648 00000000                             ....            
Contents of section .eh_frame:
 804d64c 00000000                             ....            
Contents of section .ctors:
 804d650 ffffffff 00000000                    ........        
Contents of section .dtors:
 804d658 ffffffff 00000000                    ........        
Contents of section .got:
 804d660 f4d60408 00000000 00000000 e6870408  ................
 804d670 f6870408 06880408 16880408 26880408  ............&...
 804d680 36880408 46880408 56880408 66880408  6...F...V...f...
 804d690 76880408 86880408 96880408 a6880408  v...............
 804d6a0 b6880408 c6880408 d6880408 e6880408  ................
 804d6b0 f6880408 06890408 16890408 26890408  ............&...
 804d6c0 36890408 46890408 56890408 66890408  6...F...V...f...
 804d6d0 76890408 86890408 96890408 a6890408  v...............
 804d6e0 b6890408 c6890408 d6890408 00000000  ................
 804d6f0 00000000                             ....            
Contents of section .dynamic:
 804d6f4 01000000 17000000 0c000000 a0870408  ................
 804d704 0d000000 5cbb0408 04000000 28810408  ....\.......(...
 804d714 05000000 a8840408 06000000 58820408  ............X...
 804d724 0a000000 50010000 0b000000 10000000  ....P...........
 804d734 15000000 00000000 03000000 60d60408  ............`...
 804d744 02000000 00010000 14000000 11000000  ................
 804d754 17000000 a0860408 11000000 88860408  ................
 804d764 12000000 18000000 13000000 08000000  ................
 804d774 feffff6f 58860408 ffffff6f 01000000  ...oX......o....
 804d784 f0ffff6f 0c860408 00000000 00000000  ...o............
Contents of section .comment:
 0000 00474343 3a202847 4e552920 65676373  .GCC: (GNU) egcs
 0010 2d322e39 312e3636 20313939 39303331  -2.91.66 1999031
 0020 342f4c69 6e757820 28656763 732d312e  4/Linux (egcs-1.
 0030 312e3220 72656c65 61736529 00004743  1.2 release)..GC
 0040 433a2028 474e5529 20656763 732d322e  C: (GNU) egcs-2.
 0050 39312e36 36203139 39393033 31342f4c  91.66 19990314/L
 0060 696e7578 20286567 63732d31 2e312e32  inux (egcs-1.1.2
 0070 2072656c 65617365 29000047 43433a20   release)..GCC: 
 0080 28474e55 29206567 63732d32 2e39312e  (GNU) egcs-2.91.
 0090 36362031 39393930 3331342f 4c696e75  66 19990314/Linu
 00a0 78202865 6763732d 312e312e 32207265  x (egcs-1.1.2 re
 00b0 6c656173 65290000 4743433a 2028474e  lease)..GCC: (GN
 00c0 55292065 6763732d 322e3931 2e363620  U) egcs-2.91.66 
 00d0 31393939 30333134 2f4c696e 75782028  19990314/Linux (
 00e0 65676373 2d312e31 2e322072 656c6561  egcs-1.1.2 relea
 00f0 73652900 00474343 3a202847 4e552920  se)..GCC: (GNU) 
 0100 65676373 2d322e39 312e3636 20313939  egcs-2.91.66 199
 0110 39303331 342f4c69 6e757820 28656763  90314/Linux (egc
 0120 732d312e 312e3220 72656c65 61736529  s-1.1.2 release)
 0130 00004743 433a2028 474e5529 20656763  ..GCC: (GNU) egc
 0140 732d322e 39312e36 36203139 39393033  s-2.91.66 199903
 0150 31342f4c 696e7578 20286567 63732d31  14/Linux (egcs-1
 0160 2e312e32 2072656c 65617365 29000047  .1.2 release)..G
 0170 43433a20 28474e55 29206567 63732d32  CC: (GNU) egcs-2
 0180 2e39312e 36362031 39393930 3331342f  .91.66 19990314/
 0190 4c696e75 78202865 6763732d 312e312e  Linux (egcs-1.1.
 01a0 32207265 6c656173 65290000 4743433a  2 release)..GCC:
 01b0 2028474e 55292065 6763732d 322e3931   (GNU) egcs-2.91
 01c0 2e363620 31393939 30333134 2f4c696e  .66 19990314/Lin
 01d0 75782028 65676373 2d312e31 2e322072  ux (egcs-1.1.2 r
 01e0 656c6561 73652900 00474343 3a202847  elease)..GCC: (G
 01f0 4e552920 65676373 2d322e39 312e3636  NU) egcs-2.91.66
 0200 20313939 39303331 342f4c69 6e757820   19990314/Linux 
 0210 28656763 732d312e 312e3220 72656c65  (egcs-1.1.2 rele
 0220 61736529 00004743 433a2028 474e5529  ase)..GCC: (GNU)
 0230 20656763 732d322e 39312e36 36203139   egcs-2.91.66 19
 0240 39393033 31342f4c 696e7578 20286567  990314/Linux (eg
 0250 63732d31 2e312e32 2072656c 65617365  cs-1.1.2 release
 0260 29000047 43433a20 28474e55 29206567  )..GCC: (GNU) eg
 0270 63732d32 2e39312e 36362031 39393930  cs-2.91.66 19990
 0280 3331342f 4c696e75 78202865 6763732d  314/Linux (egcs-
 0290 312e312e 32207265 6c656173 652900    1.1.2 release). 
Contents of section .note:
 029f 08000000 00000000 01000000 30312e30  ............01.0
 02af 31000000 08000000 00000000 01000000  1...............
 02bf 30312e30 31000000 08000000 00000000  01.01...........
 02cf 01000000 30312e30 31000000 08000000  ....01.01.......
 02df 00000000 01000000 30312e30 31000000  ........01.01...
 02ef 08000000 00000000 01000000 30312e30  ............01.0
 02ff 31000000 08000000 00000000 01000000  1...............
 030f 30312e30 31000000 08000000 00000000  01.01...........
 031f 01000000 30312e30 31000000 08000000  ....01.01.......
 032f 00000000 01000000 30312e30 31000000  ........01.01...
 033f 08000000 00000000 01000000 30312e30  ............01.0
 034f 31000000 08000000 00000000 01000000  1...............
 035f 30312e30 31000000 08000000 00000000  01.01...........
 036f 01000000 30312e30 31000000           ....01.01...    

Disassembly of section .interp:

080480f4 <.interp>:
 80480f4:	2f                   	das
 80480f5:	6c                   	insb   (%dx),%es:(%edi)
 80480f6:	69 62 2f 6c 64 2d 6c 	imul   $0x6c2d646c,0x2f(%edx),%esp
 80480fd:	69 6e 75 78 2e 73 6f 	imul   $0x6f732e78,0x75(%esi),%ebp
 8048104:	2e 32 00             	xor    %cs:(%eax),%al

Disassembly of section .note.ABI-tag:

08048108 <.note.ABI-tag>:
 8048108:	04 00                	add    $0x0,%al
 804810a:	00 00                	add    %al,(%eax)
 804810c:	10 00                	adc    %al,(%eax)
 804810e:	00 00                	add    %al,(%eax)
 8048110:	01 00                	add    %eax,(%eax)
 8048112:	00 00                	add    %al,(%eax)
 8048114:	47                   	inc    %edi
 8048115:	4e                   	dec    %esi
 8048116:	55                   	push   %ebp
 8048117:	00 00                	add    %al,(%eax)
 8048119:	00 00                	add    %al,(%eax)
 804811b:	00 02                	add    %al,(%edx)
	...

Disassembly of section .hash:

08048128 <.hash>:
 8048128:	25 00 00 00 25       	and    $0x25000000,%eax
 804812d:	00 00                	add    %al,(%eax)
 804812f:	00 0e                	add    %cl,(%esi)
 8048131:	00 00                	add    %al,(%eax)
 8048133:	00 06                	add    %al,(%esi)
 8048135:	00 00                	add    %al,(%eax)
 8048137:	00 05 00 00 00 22    	add    %al,0x22000000
 804813d:	00 00                	add    %al,(%eax)
 804813f:	00 09                	add    %cl,(%ecx)
	...
 804814d:	00 00                	add    %al,(%eax)
 804814f:	00 01                	add    %al,(%ecx)
 8048151:	00 00                	add    %al,(%eax)
 8048153:	00 19                	add    %bl,(%ecx)
 8048155:	00 00                	add    %al,(%eax)
 8048157:	00 00                	add    %al,(%eax)
 8048159:	00 00                	add    %al,(%eax)
 804815b:	00 02                	add    %al,(%edx)
	...
 8048165:	00 00                	add    %al,(%eax)
 8048167:	00 1e                	add    %bl,(%esi)
 8048169:	00 00                	add    %al,(%eax)
 804816b:	00 1a                	add    %bl,(%edx)
	...
 8048179:	00 00                	add    %al,(%eax)
 804817b:	00 10                	add    %dl,(%eax)
 804817d:	00 00                	add    %al,(%eax)
 804817f:	00 24 00             	add    %ah,(%eax,%eax,1)
 8048182:	00 00                	add    %al,(%eax)
 8048184:	03 00                	add    (%eax),%eax
 8048186:	00 00                	add    %al,(%eax)
 8048188:	00 00                	add    %al,(%eax)
 804818a:	00 00                	add    %al,(%eax)
 804818c:	07                   	pop    %es
	...
 8048199:	00 00                	add    %al,(%eax)
 804819b:	00 1b                	add    %bl,(%ebx)
 804819d:	00 00                	add    %al,(%eax)
 804819f:	00 13                	add    %dl,(%ebx)
 80481a1:	00 00                	add    %al,(%eax)
 80481a3:	00 1d 00 00 00 00    	add    %bl,0x0
 80481a9:	00 00                	add    %al,(%eax)
 80481ab:	00 00                	add    %al,(%eax)
 80481ad:	00 00                	add    %al,(%eax)
 80481af:	00 12                	add    %dl,(%edx)
 80481b1:	00 00                	add    %al,(%eax)
 80481b3:	00 08                	add    %cl,(%eax)
 80481b5:	00 00                	add    %al,(%eax)
 80481b7:	00 00                	add    %al,(%eax)
 80481b9:	00 00                	add    %al,(%eax)
 80481bb:	00 0f                	add    %cl,(%edi)
 80481bd:	00 00                	add    %al,(%eax)
 80481bf:	00 0c 00             	add    %cl,(%eax,%eax,1)
	...
 80481ce:	00 00                	add    %al,(%eax)
 80481d0:	1f                   	pop    %ds
 80481d1:	00 00                	add    %al,(%eax)
 80481d3:	00 00                	add    %al,(%eax)
 80481d5:	00 00                	add    %al,(%eax)
 80481d7:	00 16                	add    %dl,(%esi)
 80481d9:	00 00                	add    %al,(%eax)
 80481db:	00 1c 00             	add    %bl,(%eax,%eax,1)
 80481de:	00 00                	add    %al,(%eax)
 80481e0:	00 00                	add    %al,(%eax)
 80481e2:	00 00                	add    %al,(%eax)
 80481e4:	15 00 00 00 23       	adc    $0x23000000,%eax
	...
 80481f9:	00 00                	add    %al,(%eax)
 80481fb:	00 0d 00 00 00 0b    	add    %cl,0xb000000
	...
 8048209:	00 00                	add    %al,(%eax)
 804820b:	00 14 00             	add    %dl,(%eax,%eax,1)
	...
 8048216:	00 00                	add    %al,(%eax)
 8048218:	0a 00                	or     (%eax),%al
	...
 8048222:	00 00                	add    %al,(%eax)
 8048224:	04 00                	add    $0x0,%al
 8048226:	00 00                	add    %al,(%eax)
 8048228:	00 00                	add    %al,(%eax)
 804822a:	00 00                	add    %al,(%eax)
 804822c:	21 00                	and    %eax,(%eax)
 804822e:	00 00                	add    %al,(%eax)
 8048230:	00 00                	add    %al,(%eax)
 8048232:	00 00                	add    %al,(%eax)
 8048234:	17                   	pop    %ss
 8048235:	00 00                	add    %al,(%eax)
 8048237:	00 00                	add    %al,(%eax)
 8048239:	00 00                	add    %al,(%eax)
 804823b:	00 20                	add    %ah,(%eax)
 804823d:	00 00                	add    %al,(%eax)
 804823f:	00 00                	add    %al,(%eax)
 8048241:	00 00                	add    %al,(%eax)
 8048243:	00 11                	add    %dl,(%ecx)
 8048245:	00 00                	add    %al,(%eax)
 8048247:	00 18                	add    %bl,(%eax)
	...

Disassembly of section .dynsym:

08048258 <.dynsym>:
	...
 8048268:	01 00                	add    %eax,(%eax)
	...
 8048272:	00 00                	add    %al,(%eax)
 8048274:	20 00                	and    %al,(%eax)
 8048276:	00 00                	add    %al,(%eax)
 8048278:	10 00                	adc    %al,(%eax)
 804827a:	00 00                	add    %al,(%eax)
 804827c:	35 c6 04 08 01       	xor    $0x10804c6,%eax
 8048281:	00 00                	add    %al,(%eax)
 8048283:	00 11                	add    %dl,(%ecx)
 8048285:	00 0f                	add    %cl,(%edi)
 8048287:	00 21                	add    %ah,(%ecx)
 8048289:	00 00                	add    %al,(%eax)
 804828b:	00 d0                	add    %dl,%al
 804828d:	89 04 08             	mov    %eax,(%eax,%ecx,1)
 8048290:	22 00                	and    (%eax),%al
 8048292:	00 00                	add    %al,(%eax)
 8048294:	12 00                	adc    (%eax),%al
 8048296:	00 00                	add    %al,(%eax)
 8048298:	28 00                	sub    %al,(%eax)
 804829a:	00 00                	add    %al,(%eax)
 804829c:	f0 88 04 08          	lock mov %al,(%eax,%ecx,1)
 80482a0:	29 00                	sub    %eax,(%eax)
 80482a2:	00 00                	add    %al,(%eax)
 80482a4:	12 00                	adc    (%eax),%al
 80482a6:	00 00                	add    %al,(%eax)
 80482a8:	2f                   	das
 80482a9:	00 00                	add    %al,(%eax)
 80482ab:	00 00                	add    %al,(%eax)
 80482ad:	89 04 08             	mov    %eax,(%eax,%ecx,1)
 80482b0:	3e 00 00             	add    %al,%ds:(%eax)
 80482b3:	00 12                	add    %dl,(%edx)
 80482b5:	00 00                	add    %al,(%eax)
 80482b7:	00 36                	add    %dh,(%esi)
 80482b9:	00 00                	add    %al,(%eax)
 80482bb:	00 50 88             	add    %dl,-0x78(%eax)
 80482be:	04 08                	add    $0x8,%al
 80482c0:	34 00                	xor    $0x0,%al
 80482c2:	00 00                	add    %al,(%eax)
 80482c4:	12 00                	adc    (%eax),%al
 80482c6:	00 00                	add    %al,(%eax)
 80482c8:	3e 00 00             	add    %al,%ds:(%eax)
 80482cb:	00 60 88             	add    %ah,-0x78(%eax)
 80482ce:	04 08                	add    $0x8,%al
 80482d0:	52                   	push   %edx
 80482d1:	01 00                	add    %eax,(%eax)
 80482d3:	00 22                	add    %ah,(%edx)
 80482d5:	00 00                	add    %al,(%eax)
 80482d7:	00 45 00             	add    %al,0x0(%ebp)
 80482da:	00 00                	add    %al,(%eax)
 80482dc:	c0 89 04 08 8e 00 00 	rorb   $0x0,0x8e0804(%ecx)
 80482e3:	00 22                	add    %ah,(%edx)
 80482e5:	00 00                	add    %al,(%eax)
 80482e7:	00 4d 00             	add    %cl,0x0(%ebp)
 80482ea:	00 00                	add    %al,(%eax)
 80482ec:	20 89 04 08 b9 01    	and    %cl,0x1b90804(%ecx)
 80482f2:	00 00                	add    %al,(%eax)
 80482f4:	12 00                	adc    (%eax),%al
 80482f6:	00 00                	add    %al,(%eax)
 80482f8:	55                   	push   %ebp
 80482f9:	00 00                	add    %al,(%eax)
 80482fb:	00 10                	add    %dl,(%eax)
 80482fd:	88 04 08             	mov    %al,(%eax,%ecx,1)
 8048300:	24 00                	and    $0x0,%al
 8048302:	00 00                	add    %al,(%eax)
 8048304:	12 00                	adc    (%eax),%al
 8048306:	00 00                	add    %al,(%eax)
 8048308:	5d                   	pop    %ebp
 8048309:	00 00                	add    %al,(%eax)
 804830b:	00 30                	add    %dh,(%eax)
 804830d:	89 04 08             	mov    %eax,(%eax,%ecx,1)
 8048310:	23 00                	and    (%eax),%eax
 8048312:	00 00                	add    %al,(%eax)
 8048314:	12 00                	adc    (%eax),%al
 8048316:	00 00                	add    %al,(%eax)
 8048318:	63 00                	arpl   %eax,(%eax)
 804831a:	00 00                	add    %al,(%eax)
 804831c:	80 88 04 08 a2 00 00 	orb    $0x0,0xa20804(%eax)
 8048323:	00 22                	add    %ah,(%edx)
 8048325:	00 00                	add    %al,(%eax)
 8048327:	00 7b 00             	add    %bh,0x0(%ebx)
 804832a:	00 00                	add    %al,(%eax)
 804832c:	b0 88                	mov    $0x88,%al
 804832e:	04 08                	add    $0x8,%al
 8048330:	96                   	xchg   %eax,%esi
 8048331:	00 00                	add    %al,(%eax)
 8048333:	00 12                	add    %dl,(%edx)
 8048335:	00 00                	add    %al,(%eax)
 8048337:	00 81 00 00 00 d0    	add    %al,-0x30000000(%ecx)
 804833d:	88 04 08             	mov    %al,(%eax,%ecx,1)
 8048340:	94                   	xchg   %eax,%esp
 8048341:	00 00                	add    %al,(%eax)
 8048343:	00 12                	add    %dl,(%edx)
 8048345:	00 00                	add    %al,(%eax)
 8048347:	00 89 00 00 00 90    	add    %cl,-0x70000000(%ecx)
 804834d:	89 04 08             	mov    %eax,(%eax,%ecx,1)
 8048350:	93                   	xchg   %eax,%ebx
 8048351:	00 00                	add    %al,(%eax)
 8048353:	00 12                	add    %dl,(%edx)
 8048355:	00 00                	add    %al,(%eax)
 8048357:	00 91 00 00 00 70    	add    %dl,0x70000000(%ecx)
 804835d:	89 04 08             	mov    %eax,(%eax,%ecx,1)
 8048360:	2e 00 00             	add    %al,%cs:(%eax)
 8048363:	00 12                	add    %dl,(%edx)
 8048365:	00 00                	add    %al,(%eax)
 8048367:	00 99 00 00 00 70    	add    %bl,0x70000000(%ecx)
 804836d:	88 04 08             	mov    %al,(%eax,%ecx,1)
 8048370:	9b                   	fwait
 8048371:	00 00                	add    %al,(%eax)
 8048373:	00 22                	add    %ah,(%edx)
 8048375:	00 00                	add    %al,(%eax)
 8048377:	00 9f 00 00 00 80    	add    %bl,-0x80000000(%edi)
 804837d:	89 04 08             	mov    %eax,(%eax,%ecx,1)
 8048380:	46                   	inc    %esi
 8048381:	00 00                	add    %al,(%eax)
 8048383:	00 12                	add    %dl,(%edx)
 8048385:	00 00                	add    %al,(%eax)
 8048387:	00 a6 00 00 00 40    	add    %ah,0x40000000(%esi)
 804838d:	88 04 08             	mov    %al,(%eax,%ecx,1)
 8048390:	a6                   	cmpsb  %es:(%edi),%ds:(%esi)
 8048391:	00 00                	add    %al,(%eax)
 8048393:	00 22                	add    %ah,(%edx)
 8048395:	00 00                	add    %al,(%eax)
 8048397:	00 ac 00 00 00 c0 88 	add    %ch,-0x77400000(%eax,%eax,1)
 804839e:	04 08                	add    $0x8,%al
 80483a0:	41                   	inc    %ecx
 80483a1:	00 00                	add    %al,(%eax)
 80483a3:	00 12                	add    %dl,(%edx)
 80483a5:	00 00                	add    %al,(%eax)
 80483a7:	00 b1 00 00 00 50    	add    %dh,0x50000000(%ecx)
 80483ad:	89 04 08             	mov    %eax,(%eax,%ecx,1)
 80483b0:	9c                   	pushf
 80483b1:	01 00                	add    %eax,(%eax)
 80483b3:	00 22                	add    %ah,(%edx)
 80483b5:	00 00                	add    %al,(%eax)
 80483b7:	00 b9 00 00 00 20    	add    %bh,0x20000000(%ecx)
 80483bd:	88 04 08             	mov    %al,(%eax,%ecx,1)
 80483c0:	2e 00 00             	add    %al,%cs:(%eax)
 80483c3:	00 12                	add    %dl,(%edx)
 80483c5:	00 00                	add    %al,(%eax)
 80483c7:	00 c1                	add    %al,%cl
 80483c9:	00 00                	add    %al,(%eax)
 80483cb:	00 00                	add    %al,(%eax)
 80483cd:	88 04 08             	mov    %al,(%eax,%ecx,1)
 80483d0:	3a 00                	cmp    (%eax),%al
 80483d2:	00 00                	add    %al,(%eax)
 80483d4:	12 00                	adc    (%eax),%al
 80483d6:	00 00                	add    %al,(%eax)
 80483d8:	c8 00 00 00          	enter  $0x0,$0x0
 80483dc:	10 89 04 08 f5 00    	adc    %cl,0xf50804(%ecx)
 80483e2:	00 00                	add    %al,(%eax)
 80483e4:	12 00                	adc    (%eax),%al
 80483e6:	00 00                	add    %al,(%eax)
 80483e8:	cf                   	iret
 80483e9:	00 00                	add    %al,(%eax)
 80483eb:	00 a0 d7 04 08 04    	add    %ah,0x40804d7(%eax)
 80483f1:	00 00                	add    %al,(%eax)
 80483f3:	00 11                	add    %dl,(%ecx)
 80483f5:	00 16                	add    %dl,(%esi)
 80483f7:	00 d6                	add    %dl,%dh
 80483f9:	00 00                	add    %al,(%eax)
 80483fb:	00 b0 89 04 08 a2    	add    %dh,-0x5df7fb77(%eax)
 8048401:	00 00                	add    %al,(%eax)
 8048403:	00 22                	add    %ah,(%edx)
 8048405:	00 00                	add    %al,(%eax)
 8048407:	00 dd                	add    %bl,%ch
 8048409:	00 00                	add    %al,(%eax)
 804840b:	00 90 88 04 08 3a    	add    %dl,0x3a080488(%eax)
 8048411:	01 00                	add    %eax,(%eax)
 8048413:	00 12                	add    %dl,(%edx)
 8048415:	00 00                	add    %al,(%eax)
 8048417:	00 e5                	add    %ah,%ch
 8048419:	00 00                	add    %al,(%eax)
 804841b:	00 30                	add    %dh,(%eax)
 804841d:	88 04 08             	mov    %al,(%eax,%ecx,1)
 8048420:	1b 00                	sbb    (%eax),%eax
 8048422:	00 00                	add    %al,(%eax)
 8048424:	22 00                	and    (%eax),%al
 8048426:	00 00                	add    %al,(%eax)
 8048428:	f6 00 00             	testb  $0x0,(%eax)
 804842b:	00 60 89             	add    %ah,-0x77(%eax)
 804842e:	04 08                	add    $0x8,%al
 8048430:	c8 00 00 00          	enter  $0x0,$0x0
 8048434:	12 00                	adc    (%eax),%al
 8048436:	00 00                	add    %al,(%eax)
 8048438:	fb                   	sti
 8048439:	00 00                	add    %al,(%eax)
 804843b:	00 a0 89 04 08 79    	add    %ah,0x79080489(%eax)
 8048441:	00 00                	add    %al,(%eax)
 8048443:	00 12                	add    %dl,(%edx)
 8048445:	00 00                	add    %al,(%eax)
 8048447:	00 01                	add    %al,(%ecx)
 8048449:	01 00                	add    %eax,(%eax)
 804844b:	00 84 bb 04 08 04 00 	add    %al,0x40804(%ebx,%edi,4)
 8048452:	00 00                	add    %al,(%eax)
 8048454:	11 00                	adc    %eax,(%eax)
 8048456:	0f 00 10             	lldt   (%eax)
 8048459:	01 00                	add    %eax,(%eax)
 804845b:	00 e0                	add    %ah,%al
 804845d:	88 04 08             	mov    %al,(%eax,%ecx,1)
 8048460:	05 01 00 00 12       	add    $0x12000001,%eax
 8048465:	00 00                	add    %al,(%eax)
 8048467:	00 22                	add    %ah,(%edx)
 8048469:	01 00                	add    %eax,(%eax)
 804846b:	00 40 89             	add    %al,-0x77(%eax)
 804846e:	04 08                	add    $0x8,%al
 8048470:	70 00                	jo     8048472 <mkdir@plt-0x36e>
 8048472:	00 00                	add    %al,(%eax)
 8048474:	22 00                	and    (%eax),%al
 8048476:	00 00                	add    %al,(%eax)
 8048478:	2b 01                	sub    (%ecx),%eax
 804847a:	00 00                	add    %al,(%eax)
 804847c:	e0 87                	loopne 8048405 <mkdir@plt-0x3db>
 804847e:	04 08                	add    $0x8,%al
 8048480:	3b 00                	cmp    (%eax),%eax
 8048482:	00 00                	add    %al,(%eax)
 8048484:	22 00                	and    (%eax),%al
 8048486:	00 00                	add    %al,(%eax)
 8048488:	31 01                	xor    %eax,(%ecx)
 804848a:	00 00                	add    %al,(%eax)
 804848c:	f0 87 04 08          	lock xchg %eax,(%eax,%ecx,1)
 8048490:	74 00                	je     8048492 <mkdir@plt-0x34e>
 8048492:	00 00                	add    %al,(%eax)
 8048494:	22 00                	and    (%eax),%al
 8048496:	00 00                	add    %al,(%eax)
 8048498:	47                   	inc    %edi
 8048499:	01 00                	add    %eax,(%eax)
 804849b:	00 a0 88 04 08 29    	add    %ah,0x29080488(%eax)
 80484a1:	43                   	inc    %ebx
 80484a2:	00 00                	add    %al,(%eax)
 80484a4:	12 00                	adc    (%eax),%al
	...

Disassembly of section .dynstr:

080484a8 <.dynstr>:
 80484a8:	00 5f 5f             	add    %bl,0x5f(%edi)
 80484ab:	67 6d                	insl   (%dx),%es:(%di)
 80484ad:	6f                   	outsl  %ds:(%esi),(%dx)
 80484ae:	6e                   	outsb  %ds:(%esi),(%dx)
 80484af:	5f                   	pop    %edi
 80484b0:	73 74                	jae    8048526 <mkdir@plt-0x2ba>
 80484b2:	61                   	popa
 80484b3:	72 74                	jb     8048529 <mkdir@plt-0x2b7>
 80484b5:	5f                   	pop    %edi
 80484b6:	5f                   	pop    %edi
 80484b7:	00 44 49 52          	add    %al,0x52(%ecx,%ecx,2)
 80484bb:	53                   	push   %ebx
 80484bc:	45                   	inc    %ebp
 80484bd:	50                   	push   %eax
 80484be:	00 6c 69 62          	add    %ch,0x62(%ecx,%ebp,2)
 80484c2:	63 2e                	arpl   %ebp,(%esi)
 80484c4:	73 6f                	jae    8048535 <mkdir@plt-0x2ab>
 80484c6:	2e 36 00 73 74       	cs add %dh,%ss:0x74(%ebx)
 80484cb:	72 63                	jb     8048530 <mkdir@plt-0x2b0>
 80484cd:	70 79                	jo     8048548 <mkdir@plt-0x298>
 80484cf:	00 70 72             	add    %dh,0x72(%eax)
 80484d2:	69 6e 74 66 00 6d 65 	imul   $0x656d0066,0x74(%esi),%ebp
 80484d9:	6d                   	insl   (%dx),%es:(%edi)
 80484da:	63 70 79             	arpl   %esi,0x79(%eax)
 80484dd:	00 74 6f 6c          	add    %dh,0x6c(%edi,%ebp,2)
 80484e1:	6f                   	outsl  %ds:(%esi),(%dx)
 80484e2:	77 65                	ja     8048549 <mkdir@plt-0x297>
 80484e4:	72 00                	jb     80484e6 <mkdir@plt-0x2fa>
 80484e6:	6d                   	insl   (%dx),%es:(%edi)
 80484e7:	61                   	popa
 80484e8:	6c                   	insb   (%dx),%es:(%edi)
 80484e9:	6c                   	insb   (%dx),%es:(%edi)
 80484ea:	6f                   	outsl  %ds:(%esi),(%dx)
 80484eb:	63 00                	arpl   %eax,(%eax)
 80484ed:	72 65                	jb     8048554 <mkdir@plt-0x28c>
 80484ef:	61                   	popa
 80484f0:	64 64 69 72 00 73 74 	fs imul $0x72727473,%fs:0x0(%edx),%esi
 80484f7:	72 72 
 80484f9:	63 68 72             	arpl   %ebp,0x72(%eax)
 80484fc:	00 66 70             	add    %ah,0x70(%esi)
 80484ff:	72 69                	jb     804856a <mkdir@plt-0x276>
 8048501:	6e                   	outsb  %ds:(%esi),(%dx)
 8048502:	74 66                	je     804856a <mkdir@plt-0x276>
 8048504:	00 63 74             	add    %ah,0x74(%ebx)
 8048507:	69 6d 65 00 5f 5f 64 	imul   $0x645f5f00,0x65(%ebp),%ebp
 804850e:	65 72 65             	gs jb  8048576 <mkdir@plt-0x26a>
 8048511:	67 69 73 74 65 72 5f 	imul   $0x665f7265,0x74(%bp,%di),%esi
 8048518:	66 
 8048519:	72 61                	jb     804857c <mkdir@plt-0x264>
 804851b:	6d                   	insl   (%dx),%es:(%edi)
 804851c:	65 5f                	gs pop %edi
 804851e:	69 6e 66 6f 00 66 73 	imul   $0x7366006f,0x66(%esi),%ebp
 8048525:	65 65 6b 00 73       	gs imul $0x73,%gs:(%eax),%eax
 804852a:	74 72                	je     804859e <mkdir@plt-0x242>
 804852c:	6e                   	outsb  %ds:(%esi),(%dx)
 804852d:	63 6d 70             	arpl   %ebp,0x70(%ebp)
 8048530:	00 73 74             	add    %dh,0x74(%ebx)
 8048533:	72 6e                	jb     80485a3 <mkdir@plt-0x23d>
 8048535:	63 70 79             	arpl   %esi,0x79(%eax)
 8048538:	00 69 73             	add    %ch,0x73(%ecx)
 804853b:	61                   	popa
 804853c:	6c                   	insb   (%dx),%es:(%edi)
 804853d:	70 68                	jo     80485a7 <mkdir@plt-0x239>
 804853f:	61                   	popa
 8048540:	00 66 72             	add    %ah,0x72(%esi)
 8048543:	65 61                	gs popa
 8048545:	64 00 6d 65          	add    %ch,%fs:0x65(%ebp)
 8048549:	6d                   	insl   (%dx),%es:(%edi)
 804854a:	73 65                	jae    80485b1 <mkdir@plt-0x22f>
 804854c:	74 00                	je     804854e <mkdir@plt-0x292>
 804854e:	66 74 65             	data16 je 80485b6 <mkdir@plt-0x22a>
 8048551:	6c                   	insb   (%dx),%es:(%edi)
 8048552:	6c                   	insb   (%dx),%es:(%edi)
 8048553:	00 74 69 6d          	add    %dh,0x6d(%ecx,%ebp,2)
 8048557:	65 00 6f 70          	add    %ch,%gs:0x70(%edi)
 804855b:	65 6e                	outsb  %gs:(%esi),(%dx)
 804855d:	64 69 72 00 69 73 67 	imul   $0x72677369,%fs:0x0(%edx),%esi
 8048564:	72 
 8048565:	61                   	popa
 8048566:	70 68                	jo     80485d0 <mkdir@plt-0x210>
 8048568:	00 73 74             	add    %dh,0x74(%ebx)
 804856b:	72 63                	jb     80485d0 <mkdir@plt-0x210>
 804856d:	6d                   	insl   (%dx),%es:(%edi)
 804856e:	70 00                	jo     8048570 <mkdir@plt-0x270>
 8048570:	66 63 6c 6f 73       	arpl   %bp,0x73(%edi,%ebp,2)
 8048575:	65 00 73 74          	add    %dh,%gs:0x74(%ebx)
 8048579:	64 65 72 72          	fs gs jb 80485ef <mkdir@plt-0x1f1>
 804857d:	00 66 77             	add    %ah,0x77(%esi)
 8048580:	72 69                	jb     80485eb <mkdir@plt-0x1f5>
 8048582:	74 65                	je     80485e9 <mkdir@plt-0x1f7>
 8048584:	00 5f 5f             	add    %bl,0x5f(%edi)
 8048587:	78 73                	js     80485fc <mkdir@plt-0x1e4>
 8048589:	74 61                	je     80485ec <mkdir@plt-0x1f4>
 804858b:	74 00                	je     804858d <mkdir@plt-0x253>
 804858d:	5f                   	pop    %edi
 804858e:	5f                   	pop    %edi
 804858f:	65 72 72             	gs jb  8048604 <mkdir@plt-0x1dc>
 8048592:	6e                   	outsb  %ds:(%esi),(%dx)
 8048593:	6f                   	outsl  %ds:(%esi),(%dx)
 8048594:	5f                   	pop    %edi
 8048595:	6c                   	insb   (%dx),%es:(%edi)
 8048596:	6f                   	outsl  %ds:(%esi),(%dx)
 8048597:	63 61 74             	arpl   %esp,0x74(%ecx)
 804859a:	69 6f 6e 00 65 78 69 	imul   $0x69786500,0x6e(%edi),%ebp
 80485a1:	74 00                	je     80485a3 <mkdir@plt-0x23d>
 80485a3:	66 6f                	outsw  %ds:(%esi),(%dx)
 80485a5:	70 65                	jo     804860c <mkdir@plt-0x1d4>
 80485a7:	6e                   	outsb  %ds:(%esi),(%dx)
 80485a8:	00 5f 49             	add    %bl,0x49(%edi)
 80485ab:	4f                   	dec    %edi
 80485ac:	5f                   	pop    %edi
 80485ad:	73 74                	jae    8048623 <mkdir@plt-0x1bd>
 80485af:	64 69 6e 5f 75 73 65 	imul   $0x64657375,%fs:0x5f(%esi),%ebp
 80485b6:	64 
 80485b7:	00 5f 5f             	add    %bl,0x5f(%edi)
 80485ba:	6c                   	insb   (%dx),%es:(%edi)
 80485bb:	69 62 63 5f 73 74 61 	imul   $0x6174735f,0x63(%edx),%esp
 80485c2:	72 74                	jb     8048638 <mkdir@plt-0x1a8>
 80485c4:	5f                   	pop    %edi
 80485c5:	6d                   	insl   (%dx),%es:(%edi)
 80485c6:	61                   	popa
 80485c7:	69 6e 00 63 6c 6f 73 	imul   $0x736f6c63,0x0(%esi),%ebp
 80485ce:	65 64 69 72 00 6d 6b 	gs imul $0x69646b6d,%fs:0x0(%edx),%esi
 80485d5:	64 69 
 80485d7:	72 00                	jb     80485d9 <mkdir@plt-0x207>
 80485d9:	5f                   	pop    %edi
 80485da:	5f                   	pop    %edi
 80485db:	72 65                	jb     8048642 <mkdir@plt-0x19e>
 80485dd:	67 69 73 74 65 72 5f 	imul   $0x665f7265,0x74(%bp,%di),%esi
 80485e4:	66 
 80485e5:	72 61                	jb     8048648 <mkdir@plt-0x198>
 80485e7:	6d                   	insl   (%dx),%es:(%edi)
 80485e8:	65 5f                	gs pop %edi
 80485ea:	69 6e 66 6f 00 76 66 	imul   $0x6676006f,0x66(%esi),%ebp
 80485f1:	70 72                	jo     8048665 <mkdir@plt-0x17b>
 80485f3:	69 6e 74 66 00 47 4c 	imul   $0x4c470066,0x74(%esi),%ebp
 80485fa:	49                   	dec    %ecx
 80485fb:	42                   	inc    %edx
 80485fc:	43                   	inc    %ebx
 80485fd:	5f                   	pop    %edi
 80485fe:	32 2e                	xor    (%esi),%ch
 8048600:	31 00                	xor    %eax,(%eax)
 8048602:	47                   	inc    %edi
 8048603:	4c                   	dec    %esp
 8048604:	49                   	dec    %ecx
 8048605:	42                   	inc    %edx
 8048606:	43                   	inc    %ebx
 8048607:	5f                   	pop    %edi
 8048608:	32 2e                	xor    (%esi),%ch
 804860a:	30 00                	xor    %al,(%eax)

Disassembly of section .gnu.version:

0804860c <.gnu.version>:
 804860c:	00 00                	add    %al,(%eax)
 804860e:	00 00                	add    %al,(%eax)
 8048610:	01 00                	add    %eax,(%eax)
 8048612:	02 00                	add    (%eax),%al
 8048614:	02 00                	add    (%eax),%al
 8048616:	02 00                	add    (%eax),%al
 8048618:	02 00                	add    (%eax),%al
 804861a:	02 00                	add    (%eax),%al
 804861c:	02 00                	add    (%eax),%al
 804861e:	02 00                	add    (%eax),%al
 8048620:	02 00                	add    (%eax),%al
 8048622:	02 00                	add    (%eax),%al
 8048624:	02 00                	add    (%eax),%al
 8048626:	02 00                	add    (%eax),%al
 8048628:	02 00                	add    (%eax),%al
 804862a:	02 00                	add    (%eax),%al
 804862c:	02 00                	add    (%eax),%al
 804862e:	02 00                	add    (%eax),%al
 8048630:	02 00                	add    (%eax),%al
 8048632:	02 00                	add    (%eax),%al
 8048634:	02 00                	add    (%eax),%al
 8048636:	02 00                	add    (%eax),%al
 8048638:	02 00                	add    (%eax),%al
 804863a:	02 00                	add    (%eax),%al
 804863c:	03 00                	add    (%eax),%eax
 804863e:	02 00                	add    (%eax),%al
 8048640:	02 00                	add    (%eax),%al
 8048642:	02 00                	add    (%eax),%al
 8048644:	02 00                	add    (%eax),%al
 8048646:	02 00                	add    (%eax),%al
 8048648:	03 00                	add    (%eax),%eax
 804864a:	01 00                	add    %eax,(%eax)
 804864c:	02 00                	add    (%eax),%al
 804864e:	02 00                	add    (%eax),%al
 8048650:	02 00                	add    (%eax),%al
 8048652:	02 00                	add    (%eax),%al
 8048654:	02 00                	add    (%eax),%al

Disassembly of section .gnu.version_r:

08048658 <.gnu.version_r>:
 8048658:	01 00                	add    %eax,(%eax)
 804865a:	02 00                	add    (%eax),%al
 804865c:	17                   	pop    %ss
 804865d:	00 00                	add    %al,(%eax)
 804865f:	00 10                	add    %dl,(%eax)
 8048661:	00 00                	add    %al,(%eax)
 8048663:	00 00                	add    %al,(%eax)
 8048665:	00 00                	add    %al,(%eax)
 8048667:	00 11                	add    %dl,(%ecx)
 8048669:	69 69 0d 00 00 03 00 	imul   $0x30000,0xd(%ecx),%ebp
 8048670:	50                   	push   %eax
 8048671:	01 00                	add    %eax,(%eax)
 8048673:	00 10                	add    %dl,(%eax)
 8048675:	00 00                	add    %al,(%eax)
 8048677:	00 10                	add    %dl,(%eax)
 8048679:	69 69 0d 00 00 02 00 	imul   $0x20000,0xd(%ecx),%ebp
 8048680:	5a                   	pop    %edx
 8048681:	01 00                	add    %eax,(%eax)
 8048683:	00 00                	add    %al,(%eax)
 8048685:	00 00                	add    %al,(%eax)
	...

Disassembly of section .rel.got:

08048688 <.rel.got>:
 8048688:	f0 d6                	lock (bad)
 804868a:	04 08                	add    $0x8,%al
 804868c:	06                   	push   %es
 804868d:	02 00                	add    (%eax),%al
 804868f:	00 ec                	add    %ch,%ah
 8048691:	d6                   	(bad)
 8048692:	04 08                	add    $0x8,%al
 8048694:	06                   	push   %es
 8048695:	01 00                	add    %eax,(%eax)
	...

Disassembly of section .rel.bss:

08048698 <.rel.bss>:
 8048698:	a0 d7 04 08 05       	mov    0x50804d7,%al
 804869d:	19 00                	sbb    %eax,(%eax)
	...

Disassembly of section .rel.plt:

080486a0 <.rel.plt>:
 80486a0:	6c                   	insb   (%dx),%es:(%edi)
 80486a1:	d6                   	(bad)
 80486a2:	04 08                	add    $0x8,%al
 80486a4:	07                   	pop    %es
 80486a5:	22 00                	and    (%eax),%al
 80486a7:	00 70 d6             	add    %dh,-0x2a(%eax)
 80486aa:	04 08                	add    $0x8,%al
 80486ac:	07                   	pop    %es
 80486ad:	23 00                	and    (%eax),%eax
 80486af:	00 74 d6 04          	add    %dh,0x4(%esi,%edx,8)
 80486b3:	08 07                	or     %al,(%edi)
 80486b5:	17                   	pop    %ss
 80486b6:	00 00                	add    %al,(%eax)
 80486b8:	78 d6                	js     8048690 <mkdir@plt-0x150>
 80486ba:	04 08                	add    $0x8,%al
 80486bc:	07                   	pop    %es
 80486bd:	0a 00                	or     (%eax),%al
 80486bf:	00 7c d6 04          	add    %bh,0x4(%esi,%edx,8)
 80486c3:	08 07                	or     %al,(%edi)
 80486c5:	16                   	push   %ss
 80486c6:	00 00                	add    %al,(%eax)
 80486c8:	80 d6 04             	adc    $0x4,%dh
 80486cb:	08 07                	or     %al,(%edi)
 80486cd:	1c 00                	sbb    $0x0,%al
 80486cf:	00 84 d6 04 08 07 13 	add    %al,0x13070804(%esi,%edx,8)
 80486d6:	00 00                	add    %al,(%eax)
 80486d8:	88 d6                	mov    %dl,%dh
 80486da:	04 08                	add    $0x8,%al
 80486dc:	07                   	pop    %es
 80486dd:	06                   	push   %es
 80486de:	00 00                	add    %al,(%eax)
 80486e0:	8c d6                	mov    %ss,%esi
 80486e2:	04 08                	add    $0x8,%al
 80486e4:	07                   	pop    %es
 80486e5:	07                   	pop    %es
 80486e6:	00 00                	add    %al,(%eax)
 80486e8:	90                   	nop
 80486e9:	d6                   	(bad)
 80486ea:	04 08                	add    $0x8,%al
 80486ec:	07                   	pop    %es
 80486ed:	11 00                	adc    %eax,(%eax)
 80486ef:	00 94 d6 04 08 07 0c 	add    %dl,0xc070804(%esi,%edx,8)
 80486f6:	00 00                	add    %al,(%eax)
 80486f8:	98                   	cwtl
 80486f9:	d6                   	(bad)
 80486fa:	04 08                	add    $0x8,%al
 80486fc:	07                   	pop    %es
 80486fd:	1b 00                	sbb    (%eax),%eax
 80486ff:	00 9c d6 04 08 07 24 	add    %bl,0x24070804(%esi,%edx,8)
 8048706:	00 00                	add    %al,(%eax)
 8048708:	a0 d6 04 08 07       	mov    0x70804d6,%al
 804870d:	0d 00 00 a4 d6       	or     $0xd6a40000,%eax
 8048712:	04 08                	add    $0x8,%al
 8048714:	07                   	pop    %es
 8048715:	14 00                	adc    $0x0,%al
 8048717:	00 a8 d6 04 08 07    	add    %ch,0x70804d6(%eax)
 804871d:	0e                   	push   %cs
 804871e:	00 00                	add    %al,(%eax)
 8048720:	ac                   	lods   %ds:(%esi),%al
 8048721:	d6                   	(bad)
 8048722:	04 08                	add    $0x8,%al
 8048724:	07                   	pop    %es
 8048725:	20 00                	and    %al,(%eax)
 8048727:	00 b0 d6 04 08 07    	add    %dh,0x70804d6(%eax)
 804872d:	04 00                	add    $0x0,%al
 804872f:	00 b4 d6 04 08 07 05 	add    %dh,0x5070804(%esi,%edx,8)
 8048736:	00 00                	add    %al,(%eax)
 8048738:	b8 d6 04 08 07       	mov    $0x70804d6,%eax
 804873d:	18 00                	sbb    %al,(%eax)
 804873f:	00 bc d6 04 08 07 09 	add    %bh,0x9070804(%esi,%edx,8)
 8048746:	00 00                	add    %al,(%eax)
 8048748:	c0 d6 04             	rcl    $0x4,%dh
 804874b:	08 07                	or     %al,(%edi)
 804874d:	0b 00                	or     (%eax),%eax
 804874f:	00 c4                	add    %al,%ah
 8048751:	d6                   	(bad)
 8048752:	04 08                	add    $0x8,%al
 8048754:	07                   	pop    %es
 8048755:	21 00                	and    %eax,(%eax)
 8048757:	00 c8                	add    %cl,%al
 8048759:	d6                   	(bad)
 804875a:	04 08                	add    $0x8,%al
 804875c:	07                   	pop    %es
 804875d:	15 00 00 cc d6       	adc    $0xd6cc0000,%eax
 8048762:	04 08                	add    $0x8,%al
 8048764:	07                   	pop    %es
 8048765:	1d 00 00 d0 d6       	sbb    $0xd6d00000,%eax
 804876a:	04 08                	add    $0x8,%al
 804876c:	07                   	pop    %es
 804876d:	10 00                	adc    %al,(%eax)
 804876f:	00 d4                	add    %dl,%ah
 8048771:	d6                   	(bad)
 8048772:	04 08                	add    $0x8,%al
 8048774:	07                   	pop    %es
 8048775:	12 00                	adc    (%eax),%al
 8048777:	00 d8                	add    %bl,%al
 8048779:	d6                   	(bad)
 804877a:	04 08                	add    $0x8,%al
 804877c:	07                   	pop    %es
 804877d:	0f 00 00             	sldt   (%eax)
 8048780:	dc d6                	(bad)
 8048782:	04 08                	add    $0x8,%al
 8048784:	07                   	pop    %es
 8048785:	1e                   	push   %ds
 8048786:	00 00                	add    %al,(%eax)
 8048788:	e0 d6                	loopne 8048760 <mkdir@plt-0x80>
 804878a:	04 08                	add    $0x8,%al
 804878c:	07                   	pop    %es
 804878d:	1a 00                	sbb    (%eax),%al
 804878f:	00 e4                	add    %ah,%ah
 8048791:	d6                   	(bad)
 8048792:	04 08                	add    $0x8,%al
 8048794:	07                   	pop    %es
 8048795:	08 00                	or     %al,(%eax)
 8048797:	00 e8                	add    %ch,%al
 8048799:	d6                   	(bad)
 804879a:	04 08                	add    $0x8,%al
 804879c:	07                   	pop    %es
 804879d:	03 00                	add    (%eax),%eax
	...

Disassembly of section .init:

080487a0 <.init>:
 80487a0:	55                   	push   %ebp
 80487a1:	89 e5                	mov    %esp,%ebp
 80487a3:	53                   	push   %ebx
 80487a4:	e8 00 00 00 00       	call   80487a9 <mkdir@plt-0x37>
 80487a9:	5b                   	pop    %ebx
 80487aa:	81 c3 b7 4e 00 00    	add    $0x4eb7,%ebx
 80487b0:	83 bb 8c 00 00 00 00 	cmpl   $0x0,0x8c(%ebx)
 80487b7:	74 05                	je     80487be <mkdir@plt-0x22>
 80487b9:	e8 42 78 fb f7       	call   0 <mkdir@plt-0x80487e0>
 80487be:	89 f6                	mov    %esi,%esi
 80487c0:	e8 9b 02 00 00       	call   8048a60 <strcpy@plt+0x90>
 80487c5:	e8 66 33 00 00       	call   804bb30 <strcpy@plt+0x3160>
 80487ca:	8b 5d fc             	mov    -0x4(%ebp),%ebx
 80487cd:	c9                   	leave
 80487ce:	c3                   	ret

Disassembly of section .plt:

080487d0 <mkdir@plt-0x10>:
 80487d0:	ff 35 64 d6 04 08    	push   0x804d664
 80487d6:	ff 25 68 d6 04 08    	jmp    *0x804d668
 80487dc:	00 00                	add    %al,(%eax)
	...

080487e0 <mkdir@plt>:
 80487e0:	ff 25 6c d6 04 08    	jmp    *0x804d66c
 80487e6:	68 00 00 00 00       	push   $0x0
 80487eb:	e9 e0 ff ff ff       	jmp    80487d0 <mkdir@plt-0x10>

080487f0 <__register_frame_info@plt>:
 80487f0:	ff 25 70 d6 04 08    	jmp    *0x804d670
 80487f6:	68 08 00 00 00       	push   $0x8
 80487fb:	e9 d0 ff ff ff       	jmp    80487d0 <mkdir@plt-0x10>

08048800 <strcmp@plt>:
 8048800:	ff 25 74 d6 04 08    	jmp    *0x804d674
 8048806:	68 10 00 00 00       	push   $0x10
 804880b:	e9 c0 ff ff ff       	jmp    80487d0 <mkdir@plt-0x10>

08048810 <fprintf@plt>:
 8048810:	ff 25 78 d6 04 08    	jmp    *0x804d678
 8048816:	68 18 00 00 00       	push   $0x18
 804881b:	e9 b0 ff ff ff       	jmp    80487d0 <mkdir@plt-0x10>

08048820 <isgraph@plt>:
 8048820:	ff 25 7c d6 04 08    	jmp    *0x804d67c
 8048826:	68 20 00 00 00       	push   $0x20
 804882b:	e9 a0 ff ff ff       	jmp    80487d0 <mkdir@plt-0x10>

08048830 <__errno_location@plt>:
 8048830:	ff 25 80 d6 04 08    	jmp    *0x804d680
 8048836:	68 28 00 00 00       	push   $0x28
 804883b:	e9 90 ff ff ff       	jmp    80487d0 <mkdir@plt-0x10>

08048840 <ftell@plt>:
 8048840:	ff 25 84 d6 04 08    	jmp    *0x804d684
 8048846:	68 30 00 00 00       	push   $0x30
 804884b:	e9 80 ff ff ff       	jmp    80487d0 <mkdir@plt-0x10>

08048850 <tolower@plt>:
 8048850:	ff 25 88 d6 04 08    	jmp    *0x804d688
 8048856:	68 38 00 00 00       	push   $0x38
 804885b:	e9 70 ff ff ff       	jmp    80487d0 <mkdir@plt-0x10>

08048860 <malloc@plt>:
 8048860:	ff 25 8c d6 04 08    	jmp    *0x804d68c
 8048866:	68 40 00 00 00       	push   $0x40
 804886b:	e9 60 ff ff ff       	jmp    80487d0 <mkdir@plt-0x10>

08048870 <fread@plt>:
 8048870:	ff 25 90 d6 04 08    	jmp    *0x804d690
 8048876:	68 48 00 00 00       	push   $0x48
 804887b:	e9 50 ff ff ff       	jmp    80487d0 <mkdir@plt-0x10>

08048880 <__deregister_frame_info@plt>:
 8048880:	ff 25 94 d6 04 08    	jmp    *0x804d694
 8048886:	68 50 00 00 00       	push   $0x50
 804888b:	e9 40 ff ff ff       	jmp    80487d0 <mkdir@plt-0x10>

08048890 <__xstat@plt>:
 8048890:	ff 25 98 d6 04 08    	jmp    *0x804d698
 8048896:	68 58 00 00 00       	push   $0x58
 804889b:	e9 30 ff ff ff       	jmp    80487d0 <mkdir@plt-0x10>

080488a0 <vfprintf@plt>:
 80488a0:	ff 25 9c d6 04 08    	jmp    *0x804d69c
 80488a6:	68 60 00 00 00       	push   $0x60
 80488ab:	e9 20 ff ff ff       	jmp    80487d0 <mkdir@plt-0x10>

080488b0 <fseek@plt>:
 80488b0:	ff 25 a0 d6 04 08    	jmp    *0x804d6a0
 80488b6:	68 68 00 00 00       	push   $0x68
 80488bb:	e9 10 ff ff ff       	jmp    80487d0 <mkdir@plt-0x10>

080488c0 <time@plt>:
 80488c0:	ff 25 a4 d6 04 08    	jmp    *0x804d6a4
 80488c6:	68 70 00 00 00       	push   $0x70
 80488cb:	e9 00 ff ff ff       	jmp    80487d0 <mkdir@plt-0x10>

080488d0 <strncmp@plt>:
 80488d0:	ff 25 a8 d6 04 08    	jmp    *0x804d6a8
 80488d6:	68 78 00 00 00       	push   $0x78
 80488db:	e9 f0 fe ff ff       	jmp    80487d0 <mkdir@plt-0x10>

080488e0 <__libc_start_main@plt>:
 80488e0:	ff 25 ac d6 04 08    	jmp    *0x804d6ac
 80488e6:	68 80 00 00 00       	push   $0x80
 80488eb:	e9 e0 fe ff ff       	jmp    80487d0 <mkdir@plt-0x10>

080488f0 <printf@plt>:
 80488f0:	ff 25 b0 d6 04 08    	jmp    *0x804d6b0
 80488f6:	68 88 00 00 00       	push   $0x88
 80488fb:	e9 d0 fe ff ff       	jmp    80487d0 <mkdir@plt-0x10>

08048900 <memcpy@plt>:
 8048900:	ff 25 b4 d6 04 08    	jmp    *0x804d6b4
 8048906:	68 90 00 00 00       	push   $0x90
 804890b:	e9 c0 fe ff ff       	jmp    80487d0 <mkdir@plt-0x10>

08048910 <fclose@plt>:
 8048910:	ff 25 b8 d6 04 08    	jmp    *0x804d6b8
 8048916:	68 98 00 00 00       	push   $0x98
 804891b:	e9 b0 fe ff ff       	jmp    80487d0 <mkdir@plt-0x10>

08048920 <strrchr@plt>:
 8048920:	ff 25 bc d6 04 08    	jmp    *0x804d6bc
 8048926:	68 a0 00 00 00       	push   $0xa0
 804892b:	e9 a0 fe ff ff       	jmp    80487d0 <mkdir@plt-0x10>

08048930 <ctime@plt>:
 8048930:	ff 25 c0 d6 04 08    	jmp    *0x804d6c0
 8048936:	68 a8 00 00 00       	push   $0xa8
 804893b:	e9 90 fe ff ff       	jmp    80487d0 <mkdir@plt-0x10>

08048940 <closedir@plt>:
 8048940:	ff 25 c4 d6 04 08    	jmp    *0x804d6c4
 8048946:	68 b0 00 00 00       	push   $0xb0
 804894b:	e9 80 fe ff ff       	jmp    80487d0 <mkdir@plt-0x10>

08048950 <opendir@plt>:
 8048950:	ff 25 c8 d6 04 08    	jmp    *0x804d6c8
 8048956:	68 b8 00 00 00       	push   $0xb8
 804895b:	e9 70 fe ff ff       	jmp    80487d0 <mkdir@plt-0x10>

08048960 <exit@plt>:
 8048960:	ff 25 cc d6 04 08    	jmp    *0x804d6cc
 8048966:	68 c0 00 00 00       	push   $0xc0
 804896b:	e9 60 fe ff ff       	jmp    80487d0 <mkdir@plt-0x10>

08048970 <isalpha@plt>:
 8048970:	ff 25 d0 d6 04 08    	jmp    *0x804d6d0
 8048976:	68 c8 00 00 00       	push   $0xc8
 804897b:	e9 50 fe ff ff       	jmp    80487d0 <mkdir@plt-0x10>

08048980 <memset@plt>:
 8048980:	ff 25 d4 d6 04 08    	jmp    *0x804d6d4
 8048986:	68 d0 00 00 00       	push   $0xd0
 804898b:	e9 40 fe ff ff       	jmp    80487d0 <mkdir@plt-0x10>

08048990 <strncpy@plt>:
 8048990:	ff 25 d8 d6 04 08    	jmp    *0x804d6d8
 8048996:	68 d8 00 00 00       	push   $0xd8
 804899b:	e9 30 fe ff ff       	jmp    80487d0 <mkdir@plt-0x10>

080489a0 <fopen@plt>:
 80489a0:	ff 25 dc d6 04 08    	jmp    *0x804d6dc
 80489a6:	68 e0 00 00 00       	push   $0xe0
 80489ab:	e9 20 fe ff ff       	jmp    80487d0 <mkdir@plt-0x10>

080489b0 <fwrite@plt>:
 80489b0:	ff 25 e0 d6 04 08    	jmp    *0x804d6e0
 80489b6:	68 e8 00 00 00       	push   $0xe8
 80489bb:	e9 10 fe ff ff       	jmp    80487d0 <mkdir@plt-0x10>

080489c0 <readdir@plt>:
 80489c0:	ff 25 e4 d6 04 08    	jmp    *0x804d6e4
 80489c6:	68 f0 00 00 00       	push   $0xf0
 80489cb:	e9 00 fe ff ff       	jmp    80487d0 <mkdir@plt-0x10>

080489d0 <strcpy@plt>:
 80489d0:	ff 25 e8 d6 04 08    	jmp    *0x804d6e8
 80489d6:	68 f8 00 00 00       	push   $0xf8
 80489db:	e9 f0 fd ff ff       	jmp    80487d0 <mkdir@plt-0x10>

Disassembly of section .text:

080489e0 <.text>:
 80489e0:	31 ed                	xor    %ebp,%ebp
 80489e2:	5e                   	pop    %esi
 80489e3:	89 e1                	mov    %esp,%ecx
 80489e5:	83 e4 f8             	and    $0xfffffff8,%esp
 80489e8:	50                   	push   %eax
 80489e9:	54                   	push   %esp
 80489ea:	52                   	push   %edx
 80489eb:	68 5c bb 04 08       	push   $0x804bb5c
 80489f0:	68 a0 87 04 08       	push   $0x80487a0
 80489f5:	51                   	push   %ecx
 80489f6:	56                   	push   %esi
 80489f7:	68 88 a9 04 08       	push   $0x804a988
 80489fc:	e8 df fe ff ff       	call   80488e0 <__libc_start_main@plt>
 8048a01:	f4                   	hlt
 8048a02:	90                   	nop
 8048a03:	90                   	nop
 8048a04:	90                   	nop
 8048a05:	90                   	nop
 8048a06:	90                   	nop
 8048a07:	90                   	nop
 8048a08:	90                   	nop
 8048a09:	90                   	nop
 8048a0a:	90                   	nop
 8048a0b:	90                   	nop
 8048a0c:	90                   	nop
 8048a0d:	90                   	nop
 8048a0e:	90                   	nop
 8048a0f:	90                   	nop
 8048a10:	55                   	push   %ebp
 8048a11:	89 e5                	mov    %esp,%ebp
 8048a13:	83 3d 40 d6 04 08 00 	cmpl   $0x0,0x804d640
 8048a1a:	75 38                	jne    8048a54 <strcpy@plt+0x84>
 8048a1c:	eb 0f                	jmp    8048a2d <strcpy@plt+0x5d>
 8048a1e:	89 f6                	mov    %esi,%esi
 8048a20:	8d 50 04             	lea    0x4(%eax),%edx
 8048a23:	89 15 3c d6 04 08    	mov    %edx,0x804d63c
 8048a29:	8b 00                	mov    (%eax),%eax
 8048a2b:	ff d0                	call   *%eax
 8048a2d:	a1 3c d6 04 08       	mov    0x804d63c,%eax
 8048a32:	83 38 00             	cmpl   $0x0,(%eax)
 8048a35:	75 e9                	jne    8048a20 <strcpy@plt+0x50>
 8048a37:	b8 80 88 04 08       	mov    $0x8048880,%eax
 8048a3c:	85 c0                	test   %eax,%eax
 8048a3e:	74 0a                	je     8048a4a <strcpy@plt+0x7a>
 8048a40:	68 4c d6 04 08       	push   $0x804d64c
 8048a45:	e8 36 fe ff ff       	call   8048880 <__deregister_frame_info@plt>
 8048a4a:	c7 05 40 d6 04 08 01 	movl   $0x1,0x804d640
 8048a51:	00 00 00 
 8048a54:	c9                   	leave
 8048a55:	c3                   	ret
 8048a56:	89 f6                	mov    %esi,%esi
 8048a58:	55                   	push   %ebp
 8048a59:	89 e5                	mov    %esp,%ebp
 8048a5b:	c9                   	leave
 8048a5c:	c3                   	ret
 8048a5d:	8d 76 00             	lea    0x0(%esi),%esi
 8048a60:	55                   	push   %ebp
 8048a61:	89 e5                	mov    %esp,%ebp
 8048a63:	b8 f0 87 04 08       	mov    $0x80487f0,%eax
 8048a68:	85 c0                	test   %eax,%eax
 8048a6a:	74 0f                	je     8048a7b <strcpy@plt+0xab>
 8048a6c:	68 a4 d7 04 08       	push   $0x804d7a4
 8048a71:	68 4c d6 04 08       	push   $0x804d64c
 8048a76:	e8 75 fd ff ff       	call   80487f0 <__register_frame_info@plt>
 8048a7b:	c9                   	leave
 8048a7c:	c3                   	ret
 8048a7d:	8d 76 00             	lea    0x0(%esi),%esi
 8048a80:	55                   	push   %ebp
 8048a81:	89 e5                	mov    %esp,%ebp
 8048a83:	c9                   	leave
 8048a84:	c3                   	ret
 8048a85:	90                   	nop
 8048a86:	90                   	nop
 8048a87:	90                   	nop
 8048a88:	90                   	nop
 8048a89:	90                   	nop
 8048a8a:	90                   	nop
 8048a8b:	90                   	nop
 8048a8c:	90                   	nop
 8048a8d:	90                   	nop
 8048a8e:	90                   	nop
 8048a8f:	90                   	nop
 8048a90:	55                   	push   %ebp
 8048a91:	89 e5                	mov    %esp,%ebp
 8048a93:	53                   	push   %ebx
 8048a94:	8b 5d 08             	mov    0x8(%ebp),%ebx
 8048a97:	6a 00                	push   $0x0
 8048a99:	e8 42 21 00 00       	call   804abe0 <strcpy@plt+0x2210>
 8048a9e:	83 c4 04             	add    $0x4,%esp
 8048aa1:	81 fb c5 c6 cb c3    	cmp    $0xc3cbc6c5,%ebx
 8048aa7:	74 27                	je     8048ad0 <strcpy@plt+0x100>
 8048aa9:	6a 01                	push   $0x1
 8048aab:	e8 30 21 00 00       	call   804abe0 <strcpy@plt+0x2210>
 8048ab0:	53                   	push   %ebx
 8048ab1:	e8 66 21 00 00       	call   804ac1c <strcpy@plt+0x224c>
 8048ab6:	83 c4 08             	add    $0x8,%esp
 8048ab9:	3d c5 c6 cb c3       	cmp    $0xc3cbc6c5,%eax
 8048abe:	74 10                	je     8048ad0 <strcpy@plt+0x100>
 8048ac0:	6a 00                	push   $0x0
 8048ac2:	e8 19 21 00 00       	call   804abe0 <strcpy@plt+0x2210>
 8048ac7:	31 c0                	xor    %eax,%eax
 8048ac9:	eb 10                	jmp    8048adb <strcpy@plt+0x10b>
 8048acb:	90                   	nop
 8048acc:	8d 74 26 00          	lea    0x0(%esi,%eiz,1),%esi
 8048ad0:	89 1d 44 d8 04 08    	mov    %ebx,0x804d844
 8048ad6:	b8 01 00 00 00       	mov    $0x1,%eax
 8048adb:	8b 5d fc             	mov    -0x4(%ebp),%ebx
 8048ade:	c9                   	leave
 8048adf:	c3                   	ret
 8048ae0:	55                   	push   %ebp
 8048ae1:	89 e5                	mov    %esp,%ebp
 8048ae3:	56                   	push   %esi
 8048ae4:	53                   	push   %ebx
 8048ae5:	8b 5d 08             	mov    0x8(%ebp),%ebx
 8048ae8:	8b 75 0c             	mov    0xc(%ebp),%esi
 8048aeb:	90                   	nop
 8048aec:	8d 74 26 00          	lea    0x0(%esi,%eiz,1),%esi
 8048af0:	80 3b 2a             	cmpb   $0x2a,(%ebx)
 8048af3:	75 1f                	jne    8048b14 <strcpy@plt+0x144>
 8048af5:	43                   	inc    %ebx
 8048af6:	80 3b 2a             	cmpb   $0x2a,(%ebx)
 8048af9:	74 fa                	je     8048af5 <strcpy@plt+0x125>
 8048afb:	80 3e 00             	cmpb   $0x0,(%esi)
 8048afe:	74 1a                	je     8048b1a <strcpy@plt+0x14a>
 8048b00:	56                   	push   %esi
 8048b01:	53                   	push   %ebx
 8048b02:	e8 d9 ff ff ff       	call   8048ae0 <strcpy@plt+0x110>
 8048b07:	83 c4 08             	add    $0x8,%esp
 8048b0a:	85 c0                	test   %eax,%eax
 8048b0c:	74 32                	je     8048b40 <strcpy@plt+0x170>
 8048b0e:	46                   	inc    %esi
 8048b0f:	80 3e 00             	cmpb   $0x0,(%esi)
 8048b12:	75 ec                	jne    8048b00 <strcpy@plt+0x130>
 8048b14:	8a 16                	mov    (%esi),%dl
 8048b16:	84 d2                	test   %dl,%dl
 8048b18:	75 06                	jne    8048b20 <strcpy@plt+0x150>
 8048b1a:	0f be 03             	movsbl (%ebx),%eax
 8048b1d:	eb 23                	jmp    8048b42 <strcpy@plt+0x172>
 8048b1f:	90                   	nop
 8048b20:	8a 03                	mov    (%ebx),%al
 8048b22:	3c 3f                	cmp    $0x3f,%al
 8048b24:	74 10                	je     8048b36 <strcpy@plt+0x166>
 8048b26:	0c 20                	or     $0x20,%al
 8048b28:	80 ca 20             	or     $0x20,%dl
 8048b2b:	38 d0                	cmp    %dl,%al
 8048b2d:	74 07                	je     8048b36 <strcpy@plt+0x166>
 8048b2f:	b8 01 00 00 00       	mov    $0x1,%eax
 8048b34:	eb 0c                	jmp    8048b42 <strcpy@plt+0x172>
 8048b36:	43                   	inc    %ebx
 8048b37:	46                   	inc    %esi
 8048b38:	eb b6                	jmp    8048af0 <strcpy@plt+0x120>
 8048b3a:	8d b6 00 00 00 00    	lea    0x0(%esi),%esi
 8048b40:	31 c0                	xor    %eax,%eax
 8048b42:	8d 65 f8             	lea    -0x8(%ebp),%esp
 8048b45:	5b                   	pop    %ebx
 8048b46:	5e                   	pop    %esi
 8048b47:	c9                   	leave
 8048b48:	c3                   	ret
 8048b49:	8d 76 00             	lea    0x0(%esi),%esi
 8048b4c:	55                   	push   %ebp
 8048b4d:	89 e5                	mov    %esp,%ebp
 8048b4f:	57                   	push   %edi
 8048b50:	56                   	push   %esi
 8048b51:	53                   	push   %ebx
 8048b52:	8b 45 08             	mov    0x8(%ebp),%eax
 8048b55:	8b 7d 0c             	mov    0xc(%ebp),%edi
 8048b58:	8d 58 0c             	lea    0xc(%eax),%ebx
 8048b5b:	ff 70 04             	push   0x4(%eax)
 8048b5e:	e8 b9 20 00 00       	call   804ac1c <strcpy@plt+0x224c>
 8048b63:	c1 e0 04             	shl    $0x4,%eax
 8048b66:	8d 34 18             	lea    (%eax,%ebx,1),%esi
 8048b69:	83 c4 04             	add    $0x4,%esp
 8048b6c:	39 f3                	cmp    %esi,%ebx
 8048b6e:	73 27                	jae    8048b97 <strcpy@plt+0x1c7>
 8048b70:	83 7b 08 00          	cmpl   $0x0,0x8(%ebx)
 8048b74:	74 1a                	je     8048b90 <strcpy@plt+0x1c0>
 8048b76:	6a 08                	push   $0x8
 8048b78:	57                   	push   %edi
 8048b79:	53                   	push   %ebx
 8048b7a:	e8 51 fd ff ff       	call   80488d0 <strncmp@plt>
 8048b7f:	83 c4 0c             	add    $0xc,%esp
 8048b82:	85 c0                	test   %eax,%eax
 8048b84:	75 0a                	jne    8048b90 <strcpy@plt+0x1c0>
 8048b86:	89 d8                	mov    %ebx,%eax
 8048b88:	eb 0f                	jmp    8048b99 <strcpy@plt+0x1c9>
 8048b8a:	8d b6 00 00 00 00    	lea    0x0(%esi),%esi
 8048b90:	83 c3 10             	add    $0x10,%ebx
 8048b93:	39 f3                	cmp    %esi,%ebx
 8048b95:	72 d9                	jb     8048b70 <strcpy@plt+0x1a0>
 8048b97:	31 c0                	xor    %eax,%eax
 8048b99:	8d 65 f4             	lea    -0xc(%ebp),%esp
 8048b9c:	5b                   	pop    %ebx
 8048b9d:	5e                   	pop    %esi
 8048b9e:	5f                   	pop    %edi
 8048b9f:	c9                   	leave
 8048ba0:	c3                   	ret
 8048ba1:	8d 76 00             	lea    0x0(%esi),%esi
 8048ba4:	55                   	push   %ebp
 8048ba5:	89 e5                	mov    %esp,%ebp
 8048ba7:	83 ec 08             	sub    $0x8,%esp
 8048baa:	57                   	push   %edi
 8048bab:	56                   	push   %esi
 8048bac:	53                   	push   %ebx
 8048bad:	8b 45 08             	mov    0x8(%ebp),%eax
 8048bb0:	ff 70 04             	push   0x4(%eax)
 8048bb3:	e8 64 20 00 00       	call   804ac1c <strcpy@plt+0x224c>
 8048bb8:	89 c7                	mov    %eax,%edi
 8048bba:	8b 45 08             	mov    0x8(%ebp),%eax
 8048bbd:	ff 30                	push   (%eax)
 8048bbf:	e8 58 20 00 00       	call   804ac1c <strcpy@plt+0x224c>
 8048bc4:	89 c2                	mov    %eax,%edx
 8048bc6:	83 c4 08             	add    $0x8,%esp
 8048bc9:	83 3d 58 d8 04 08 00 	cmpl   $0x0,0x804d858
 8048bd0:	74 06                	je     8048bd8 <strcpy@plt+0x208>
 8048bd2:	83 7d 08 00          	cmpl   $0x0,0x8(%ebp)
 8048bd6:	75 18                	jne    8048bf0 <strcpy@plt+0x220>
 8048bd8:	6a 0d                	push   $0xd
 8048bda:	68 a0 bb 04 08       	push   $0x804bba0
 8048bdf:	8b 45 0c             	mov    0xc(%ebp),%eax
 8048be2:	50                   	push   %eax
 8048be3:	e8 18 fd ff ff       	call   8048900 <memcpy@plt>
 8048be8:	89 c2                	mov    %eax,%edx
 8048bea:	e9 9b 00 00 00       	jmp    8048c8a <strcpy@plt+0x2ba>
 8048bef:	90                   	nop
 8048bf0:	c1 ef 10             	shr    $0x10,%edi
 8048bf3:	89 d0                	mov    %edx,%eax
 8048bf5:	c1 e0 10             	shl    $0x10,%eax
 8048bf8:	89 fb                	mov    %edi,%ebx
 8048bfa:	09 c3                	or     %eax,%ebx
 8048bfc:	89 d6                	mov    %edx,%esi
 8048bfe:	c1 ee 10             	shr    $0x10,%esi
 8048c01:	81 fb ff 69 99 6e    	cmp    $0x6e9969ff,%ebx
 8048c07:	77 01                	ja     8048c0a <strcpy@plt+0x23a>
 8048c09:	4e                   	dec    %esi
 8048c0a:	81 c3 00 96 66 91    	add    $0x91669600,%ebx
 8048c10:	8d 46 cd             	lea    -0x33(%esi),%eax
 8048c13:	89 c6                	mov    %eax,%esi
 8048c15:	c7 45 fc 00 00 00 00 	movl   $0x0,-0x4(%ebp)
 8048c1c:	85 c0                	test   %eax,%eax
 8048c1e:	74 1a                	je     8048c3a <strcpy@plt+0x26a>
 8048c20:	81 fb ff 27 6b ee    	cmp    $0xee6b27ff,%ebx
 8048c26:	77 01                	ja     8048c29 <strcpy@plt+0x259>
 8048c28:	4e                   	dec    %esi
 8048c29:	81 c3 00 d8 94 11    	add    $0x1194d800,%ebx
 8048c2f:	81 45 fc 00 5a 62 02 	addl   $0x2625a00,-0x4(%ebp)
 8048c36:	85 f6                	test   %esi,%esi
 8048c38:	75 e6                	jne    8048c20 <strcpy@plt+0x250>
 8048c3a:	89 5d f8             	mov    %ebx,-0x8(%ebp)
 8048c3d:	ba 1f 85 eb 51       	mov    $0x51eb851f,%edx
 8048c42:	89 d8                	mov    %ebx,%eax
 8048c44:	f7 e2                	mul    %edx
 8048c46:	c1 ea 05             	shr    $0x5,%edx
 8048c49:	03 55 fc             	add    -0x4(%ebp),%edx
 8048c4c:	89 55 fc             	mov    %edx,-0x4(%ebp)
 8048c4f:	79 07                	jns    8048c58 <strcpy@plt+0x288>
 8048c51:	c7 45 fc 00 00 00 00 	movl   $0x0,-0x4(%ebp)
 8048c58:	8d 45 fc             	lea    -0x4(%ebp),%eax
 8048c5b:	50                   	push   %eax
 8048c5c:	e8 cf fc ff ff       	call   8048930 <ctime@plt>
 8048c61:	83 c4 04             	add    $0x4,%esp
 8048c64:	89 c2                	mov    %eax,%edx
 8048c66:	52                   	push   %edx
 8048c67:	8b 45 0c             	mov    0xc(%ebp),%eax
 8048c6a:	50                   	push   %eax
 8048c6b:	e8 60 fd ff ff       	call   80489d0 <strcpy@plt>
 8048c70:	8b 7d 0c             	mov    0xc(%ebp),%edi
 8048c73:	31 c0                	xor    %eax,%eax
 8048c75:	fc                   	cld
 8048c76:	b9 ff ff ff ff       	mov    $0xffffffff,%ecx
 8048c7b:	f2 ae                	repnz scas %es:(%edi),%al
 8048c7d:	f7 d1                	not    %ecx
 8048c7f:	8b 45 0c             	mov    0xc(%ebp),%eax
 8048c82:	c6 44 08 fe 00       	movb   $0x0,-0x2(%eax,%ecx,1)
 8048c87:	8b 45 0c             	mov    0xc(%ebp),%eax
 8048c8a:	8d 65 ec             	lea    -0x14(%ebp),%esp
 8048c8d:	5b                   	pop    %ebx
 8048c8e:	5e                   	pop    %esi
 8048c8f:	5f                   	pop    %edi
 8048c90:	c9                   	leave
 8048c91:	c3                   	ret
 8048c92:	89 f6                	mov    %esi,%esi
 8048c94:	55                   	push   %ebp
 8048c95:	89 e5                	mov    %esp,%ebp
 8048c97:	53                   	push   %ebx
 8048c98:	8b 5d 08             	mov    0x8(%ebp),%ebx
 8048c9b:	68 ad bb 04 08       	push   $0x804bbad
 8048ca0:	68 bb bb 04 08       	push   $0x804bbbb
 8048ca5:	ff 35 a0 d7 04 08    	push   0x804d7a0
 8048cab:	e8 60 fb ff ff       	call   8048810 <fprintf@plt>
 8048cb0:	83 c4 0c             	add    $0xc,%esp
 8048cb3:	83 fb 01             	cmp    $0x1,%ebx
 8048cb6:	75 08                	jne    8048cc0 <strcpy@plt+0x2f0>
 8048cb8:	68 c0 bb 04 08       	push   $0x804bbc0
 8048cbd:	eb 1b                	jmp    8048cda <strcpy@plt+0x30a>
 8048cbf:	90                   	nop
 8048cc0:	83 fb 02             	cmp    $0x2,%ebx
 8048cc3:	75 0b                	jne    8048cd0 <strcpy@plt+0x300>
 8048cc5:	68 cb bb 04 08       	push   $0x804bbcb
 8048cca:	eb 0e                	jmp    8048cda <strcpy@plt+0x30a>
 8048ccc:	8d 74 26 00          	lea    0x0(%esi,%eiz,1),%esi
 8048cd0:	83 fb 02             	cmp    $0x2,%ebx
 8048cd3:	7e 13                	jle    8048ce8 <strcpy@plt+0x318>
 8048cd5:	68 d6 bb 04 08       	push   $0x804bbd6
 8048cda:	ff 35 a0 d7 04 08    	push   0x804d7a0
 8048ce0:	e8 2b fb ff ff       	call   8048810 <fprintf@plt>
 8048ce5:	83 c4 08             	add    $0x8,%esp
 8048ce8:	8d 45 10             	lea    0x10(%ebp),%eax
 8048ceb:	50                   	push   %eax
 8048cec:	ff 75 0c             	push   0xc(%ebp)
 8048cef:	ff 35 a0 d7 04 08    	push   0x804d7a0
 8048cf5:	e8 a6 fb ff ff       	call   80488a0 <vfprintf@plt>
 8048cfa:	68 e1 bb 04 08       	push   $0x804bbe1
 8048cff:	ff 35 a0 d7 04 08    	push   0x804d7a0
 8048d05:	e8 06 fb ff ff       	call   8048810 <fprintf@plt>
 8048d0a:	83 c4 14             	add    $0x14,%esp
 8048d0d:	83 fb 01             	cmp    $0x1,%ebx
 8048d10:	7e 0e                	jle    8048d20 <strcpy@plt+0x350>
 8048d12:	6a 01                	push   $0x1
 8048d14:	e8 47 fc ff ff       	call   8048960 <exit@plt>
 8048d19:	8d b4 26 00 00 00 00 	lea    0x0(%esi,%eiz,1),%esi
 8048d20:	8b 5d fc             	mov    -0x4(%ebp),%ebx
 8048d23:	c9                   	leave
 8048d24:	c3                   	ret
 8048d25:	8d 76 00             	lea    0x0(%esi),%esi
 8048d28:	55                   	push   %ebp
 8048d29:	89 e5                	mov    %esp,%ebp
 8048d2b:	56                   	push   %esi
 8048d2c:	53                   	push   %ebx
 8048d2d:	8b 75 08             	mov    0x8(%ebp),%esi
 8048d30:	85 f6                	test   %esi,%esi
 8048d32:	7f 10                	jg     8048d44 <strcpy@plt+0x374>
 8048d34:	56                   	push   %esi
 8048d35:	68 00 bc 04 08       	push   $0x804bc00
 8048d3a:	6a 02                	push   $0x2
 8048d3c:	e8 53 ff ff ff       	call   8048c94 <strcpy@plt+0x2c4>
 8048d41:	83 c4 0c             	add    $0xc,%esp
 8048d44:	56                   	push   %esi
 8048d45:	e8 16 fb ff ff       	call   8048860 <malloc@plt>
 8048d4a:	89 c3                	mov    %eax,%ebx
 8048d4c:	83 c4 04             	add    $0x4,%esp
 8048d4f:	85 db                	test   %ebx,%ebx
 8048d51:	75 0f                	jne    8048d62 <strcpy@plt+0x392>
 8048d53:	68 24 bc 04 08       	push   $0x804bc24
 8048d58:	6a 03                	push   $0x3
 8048d5a:	e8 35 ff ff ff       	call   8048c94 <strcpy@plt+0x2c4>
 8048d5f:	83 c4 08             	add    $0x8,%esp
 8048d62:	56                   	push   %esi
 8048d63:	6a 00                	push   $0x0
 8048d65:	53                   	push   %ebx
 8048d66:	e8 15 fc ff ff       	call   8048980 <memset@plt>
 8048d6b:	89 d8                	mov    %ebx,%eax
 8048d6d:	8d 65 f8             	lea    -0x8(%ebp),%esp
 8048d70:	5b                   	pop    %ebx
 8048d71:	5e                   	pop    %esi
 8048d72:	c9                   	leave
 8048d73:	c3                   	ret
 8048d74:	55                   	push   %ebp
 8048d75:	89 e5                	mov    %esp,%ebp
 8048d77:	c9                   	leave
 8048d78:	c3                   	ret
 8048d79:	8d 76 00             	lea    0x0(%esi),%esi
 8048d7c:	55                   	push   %ebp
 8048d7d:	89 e5                	mov    %esp,%ebp
 8048d7f:	83 ec 10             	sub    $0x10,%esp
 8048d82:	57                   	push   %edi
 8048d83:	56                   	push   %esi
 8048d84:	53                   	push   %ebx
 8048d85:	68 33 bc 04 08       	push   $0x804bc33
 8048d8a:	ff 35 14 d8 04 08    	push   0x804d814
 8048d90:	e8 0b fc ff ff       	call   80489a0 <fopen@plt>
 8048d95:	89 45 f4             	mov    %eax,-0xc(%ebp)
 8048d98:	83 c4 08             	add    $0x8,%esp
 8048d9b:	85 c0                	test   %eax,%eax
 8048d9d:	75 15                	jne    8048db4 <strcpy@plt+0x3e4>
 8048d9f:	ff 35 14 d8 04 08    	push   0x804d814
 8048da5:	68 36 bc 04 08       	push   $0x804bc36
 8048daa:	6a 02                	push   $0x2
 8048dac:	e8 e3 fe ff ff       	call   8048c94 <strcpy@plt+0x2c4>
 8048db1:	83 c4 0c             	add    $0xc,%esp
 8048db4:	6a 1c                	push   $0x1c
 8048db6:	e8 6d ff ff ff       	call   8048d28 <strcpy@plt+0x358>
 8048dbb:	89 45 fc             	mov    %eax,-0x4(%ebp)
 8048dbe:	8b 4d f4             	mov    -0xc(%ebp),%ecx
 8048dc1:	51                   	push   %ecx
 8048dc2:	6a 01                	push   $0x1
 8048dc4:	6a 0c                	push   $0xc
 8048dc6:	89 c1                	mov    %eax,%ecx
 8048dc8:	51                   	push   %ecx
 8048dc9:	e8 a2 fa ff ff       	call   8048870 <fread@plt>
 8048dce:	83 c4 14             	add    $0x14,%esp
 8048dd1:	83 f8 01             	cmp    $0x1,%eax
 8048dd4:	0f 85 ea 03 00 00    	jne    80491c4 <strcpy@plt+0x7f4>
 8048dda:	8b 4d fc             	mov    -0x4(%ebp),%ecx
 8048ddd:	ff 31                	push   (%ecx)
 8048ddf:	e8 ac fc ff ff       	call   8048a90 <strcpy@plt+0xc0>
 8048de4:	83 c4 04             	add    $0x4,%esp
 8048de7:	85 c0                	test   %eax,%eax
 8048de9:	0f 84 c8 03 00 00    	je     80491b7 <strcpy@plt+0x7e7>
 8048def:	8b 4d fc             	mov    -0x4(%ebp),%ecx
 8048df2:	ff 71 08             	push   0x8(%ecx)
 8048df5:	e8 22 1e 00 00       	call   804ac1c <strcpy@plt+0x224c>
 8048dfa:	89 c3                	mov    %eax,%ebx
 8048dfc:	8b 4d fc             	mov    -0x4(%ebp),%ecx
 8048dff:	ff 71 04             	push   0x4(%ecx)
 8048e02:	e8 15 1e 00 00       	call   804ac1c <strcpy@plt+0x224c>
 8048e07:	83 c4 08             	add    $0x8,%esp
 8048e0a:	39 c3                	cmp    %eax,%ebx
 8048e0c:	0f 8f a5 03 00 00    	jg     80491b7 <strcpy@plt+0x7e7>
 8048e12:	6a 00                	push   $0x0
 8048e14:	6a 00                	push   $0x0
 8048e16:	8b 4d f4             	mov    -0xc(%ebp),%ecx
 8048e19:	51                   	push   %ecx
 8048e1a:	e8 91 fa ff ff       	call   80488b0 <fseek@plt>
 8048e1f:	8b 4d fc             	mov    -0x4(%ebp),%ecx
 8048e22:	ff 71 04             	push   0x4(%ecx)
 8048e25:	e8 f2 1d 00 00       	call   804ac1c <strcpy@plt+0x224c>
 8048e2a:	89 c6                	mov    %eax,%esi
 8048e2c:	89 f3                	mov    %esi,%ebx
 8048e2e:	c1 e3 04             	shl    $0x4,%ebx
 8048e31:	83 cb 0c             	or     $0xc,%ebx
 8048e34:	53                   	push   %ebx
 8048e35:	e8 ee fe ff ff       	call   8048d28 <strcpy@plt+0x358>
 8048e3a:	a3 18 d8 04 08       	mov    %eax,0x804d818
 8048e3f:	8b 4d f4             	mov    -0xc(%ebp),%ecx
 8048e42:	51                   	push   %ecx
 8048e43:	6a 01                	push   $0x1
 8048e45:	53                   	push   %ebx
 8048e46:	50                   	push   %eax
 8048e47:	e8 24 fa ff ff       	call   8048870 <fread@plt>
 8048e4c:	83 c4 24             	add    $0x24,%esp
 8048e4f:	83 f8 01             	cmp    $0x1,%eax
 8048e52:	0f 85 6c 03 00 00    	jne    80491c4 <strcpy@plt+0x7f4>
 8048e58:	8d 04 b5 04 00 00 00 	lea    0x4(,%esi,4),%eax
 8048e5f:	50                   	push   %eax
 8048e60:	e8 c3 fe ff ff       	call   8048d28 <strcpy@plt+0x358>
 8048e65:	a3 00 d8 04 08       	mov    %eax,0x804d800
 8048e6a:	31 d2                	xor    %edx,%edx
 8048e6c:	83 c4 04             	add    $0x4,%esp
 8048e6f:	39 f2                	cmp    %esi,%edx
 8048e71:	7f 11                	jg     8048e84 <strcpy@plt+0x4b4>
 8048e73:	a1 00 d8 04 08       	mov    0x804d800,%eax
 8048e78:	c7 04 90 00 00 00 00 	movl   $0x0,(%eax,%edx,4)
 8048e7f:	42                   	inc    %edx
 8048e80:	39 f2                	cmp    %esi,%edx
 8048e82:	7e ef                	jle    8048e73 <strcpy@plt+0x4a3>
 8048e84:	8b 0d 18 d8 04 08    	mov    0x804d818,%ecx
 8048e8a:	89 4d fc             	mov    %ecx,-0x4(%ebp)
 8048e8d:	89 0d 4c d8 04 08    	mov    %ecx,0x804d84c
 8048e93:	68 51 bc 04 08       	push   $0x804bc51
 8048e98:	51                   	push   %ecx
 8048e99:	e8 ae fc ff ff       	call   8048b4c <strcpy@plt+0x17c>
 8048e9e:	a3 50 d8 04 08       	mov    %eax,0x804d850
 8048ea3:	83 c4 08             	add    $0x8,%esp
 8048ea6:	85 c0                	test   %eax,%eax
 8048ea8:	0f 84 09 03 00 00    	je     80491b7 <strcpy@plt+0x7e7>
 8048eae:	68 5a bc 04 08       	push   $0x804bc5a
 8048eb3:	8b 4d fc             	mov    -0x4(%ebp),%ecx
 8048eb6:	51                   	push   %ecx
 8048eb7:	e8 90 fc ff ff       	call   8048b4c <strcpy@plt+0x17c>
 8048ebc:	a3 60 d8 04 08       	mov    %eax,0x804d860
 8048ec1:	83 c4 08             	add    $0x8,%esp
 8048ec4:	85 c0                	test   %eax,%eax
 8048ec6:	74 6d                	je     8048f35 <strcpy@plt+0x565>
 8048ec8:	83 78 0c 00          	cmpl   $0x0,0xc(%eax)
 8048ecc:	74 67                	je     8048f35 <strcpy@plt+0x565>
 8048ece:	c7 05 24 d8 04 08 01 	movl   $0x1,0x804d824
 8048ed5:	00 00 00 
 8048ed8:	ff 70 0c             	push   0xc(%eax)
 8048edb:	e8 3c 1d 00 00       	call   804ac1c <strcpy@plt+0x224c>
 8048ee0:	50                   	push   %eax
 8048ee1:	e8 42 fe ff ff       	call   8048d28 <strcpy@plt+0x358>
 8048ee6:	a3 10 d8 04 08       	mov    %eax,0x804d810
 8048eeb:	6a 00                	push   $0x0
 8048eed:	a1 60 d8 04 08       	mov    0x804d860,%eax
 8048ef2:	ff 70 08             	push   0x8(%eax)
 8048ef5:	e8 22 1d 00 00       	call   804ac1c <strcpy@plt+0x224c>
 8048efa:	83 c4 04             	add    $0x4,%esp
 8048efd:	50                   	push   %eax
 8048efe:	8b 4d f4             	mov    -0xc(%ebp),%ecx
 8048f01:	51                   	push   %ecx
 8048f02:	e8 a9 f9 ff ff       	call   80488b0 <fseek@plt>
 8048f07:	8b 4d f4             	mov    -0xc(%ebp),%ecx
 8048f0a:	51                   	push   %ecx
 8048f0b:	6a 01                	push   $0x1
 8048f0d:	a1 60 d8 04 08       	mov    0x804d860,%eax
 8048f12:	ff 70 0c             	push   0xc(%eax)
 8048f15:	e8 02 1d 00 00       	call   804ac1c <strcpy@plt+0x224c>
 8048f1a:	83 c4 04             	add    $0x4,%esp
 8048f1d:	50                   	push   %eax
 8048f1e:	ff 35 10 d8 04 08    	push   0x804d810
 8048f24:	e8 47 f9 ff ff       	call   8048870 <fread@plt>
 8048f29:	83 c4 24             	add    $0x24,%esp
 8048f2c:	83 f8 01             	cmp    $0x1,%eax
 8048f2f:	0f 85 8f 02 00 00    	jne    80491c4 <strcpy@plt+0x7f4>
 8048f35:	83 3d 24 d8 04 08 00 	cmpl   $0x0,0x804d824
 8048f3c:	75 16                	jne    8048f54 <strcpy@plt+0x584>
 8048f3e:	83 3d 2c d8 04 08 00 	cmpl   $0x0,0x804d82c
 8048f45:	75 0d                	jne    8048f54 <strcpy@plt+0x584>
 8048f47:	83 3d 30 d8 04 08 00 	cmpl   $0x0,0x804d830
 8048f4e:	0f 84 15 01 00 00    	je     8049069 <strcpy@plt+0x699>
 8048f54:	68 63 bc 04 08       	push   $0x804bc63
 8048f59:	8b 4d fc             	mov    -0x4(%ebp),%ecx
 8048f5c:	51                   	push   %ecx
 8048f5d:	e8 ea fb ff ff       	call   8048b4c <strcpy@plt+0x17c>
 8048f62:	a3 58 d8 04 08       	mov    %eax,0x804d858
 8048f67:	6a 04                	push   $0x4
 8048f69:	e8 ba fd ff ff       	call   8048d28 <strcpy@plt+0x358>
 8048f6e:	a3 04 d8 04 08       	mov    %eax,0x804d804
 8048f73:	6a 00                	push   $0x0
 8048f75:	a1 58 d8 04 08       	mov    0x804d858,%eax
 8048f7a:	ff 70 08             	push   0x8(%eax)
 8048f7d:	e8 9a 1c 00 00       	call   804ac1c <strcpy@plt+0x224c>
 8048f82:	83 c4 04             	add    $0x4,%esp
 8048f85:	50                   	push   %eax
 8048f86:	8b 4d f4             	mov    -0xc(%ebp),%ecx
 8048f89:	51                   	push   %ecx
 8048f8a:	e8 21 f9 ff ff       	call   80488b0 <fseek@plt>
 8048f8f:	8b 4d f4             	mov    -0xc(%ebp),%ecx
 8048f92:	51                   	push   %ecx
 8048f93:	6a 01                	push   $0x1
 8048f95:	6a 04                	push   $0x4
 8048f97:	ff 35 04 d8 04 08    	push   0x804d804
 8048f9d:	e8 ce f8 ff ff       	call   8048870 <fread@plt>
 8048fa2:	83 c4 28             	add    $0x28,%esp
 8048fa5:	83 f8 01             	cmp    $0x1,%eax
 8048fa8:	0f 85 16 02 00 00    	jne    80491c4 <strcpy@plt+0x7f4>
 8048fae:	68 6c bc 04 08       	push   $0x804bc6c
 8048fb3:	8b 4d fc             	mov    -0x4(%ebp),%ecx
 8048fb6:	51                   	push   %ecx
 8048fb7:	e8 90 fb ff ff       	call   8048b4c <strcpy@plt+0x17c>
 8048fbc:	a3 54 d8 04 08       	mov    %eax,0x804d854
 8048fc1:	6a 08                	push   $0x8
 8048fc3:	e8 60 fd ff ff       	call   8048d28 <strcpy@plt+0x358>
 8048fc8:	a3 08 d8 04 08       	mov    %eax,0x804d808
 8048fcd:	6a 00                	push   $0x0
 8048fcf:	a1 54 d8 04 08       	mov    0x804d854,%eax
 8048fd4:	ff 70 08             	push   0x8(%eax)
 8048fd7:	e8 40 1c 00 00       	call   804ac1c <strcpy@plt+0x224c>
 8048fdc:	83 c4 04             	add    $0x4,%esp
 8048fdf:	50                   	push   %eax
 8048fe0:	8b 4d f4             	mov    -0xc(%ebp),%ecx
 8048fe3:	51                   	push   %ecx
 8048fe4:	e8 c7 f8 ff ff       	call   80488b0 <fseek@plt>
 8048fe9:	8b 4d f4             	mov    -0xc(%ebp),%ecx
 8048fec:	51                   	push   %ecx
 8048fed:	6a 01                	push   $0x1
 8048fef:	6a 08                	push   $0x8
 8048ff1:	ff 35 08 d8 04 08    	push   0x804d808
 8048ff7:	e8 74 f8 ff ff       	call   8048870 <fread@plt>
 8048ffc:	83 c4 28             	add    $0x28,%esp
 8048fff:	83 f8 01             	cmp    $0x1,%eax
 8049002:	0f 85 bc 01 00 00    	jne    80491c4 <strcpy@plt+0x7f4>
 8049008:	68 75 bc 04 08       	push   $0x804bc75
 804900d:	8b 4d fc             	mov    -0x4(%ebp),%ecx
 8049010:	51                   	push   %ecx
 8049011:	e8 36 fb ff ff       	call   8048b4c <strcpy@plt+0x17c>
 8049016:	a3 5c d8 04 08       	mov    %eax,0x804d85c
 804901b:	83 c4 08             	add    $0x8,%esp
 804901e:	85 c0                	test   %eax,%eax
 8049020:	74 47                	je     8049069 <strcpy@plt+0x699>
 8049022:	6a 08                	push   $0x8
 8049024:	e8 ff fc ff ff       	call   8048d28 <strcpy@plt+0x358>
 8049029:	a3 0c d8 04 08       	mov    %eax,0x804d80c
 804902e:	6a 00                	push   $0x0
 8049030:	a1 5c d8 04 08       	mov    0x804d85c,%eax
 8049035:	ff 70 08             	push   0x8(%eax)
 8049038:	e8 df 1b 00 00       	call   804ac1c <strcpy@plt+0x224c>
 804903d:	83 c4 04             	add    $0x4,%esp
 8049040:	50                   	push   %eax
 8049041:	8b 4d f4             	mov    -0xc(%ebp),%ecx
 8049044:	51                   	push   %ecx
 8049045:	e8 66 f8 ff ff       	call   80488b0 <fseek@plt>
 804904a:	8b 4d f4             	mov    -0xc(%ebp),%ecx
 804904d:	51                   	push   %ecx
 804904e:	6a 01                	push   $0x1
 8049050:	6a 08                	push   $0x8
 8049052:	ff 35 0c d8 04 08    	push   0x804d80c
 8049058:	e8 13 f8 ff ff       	call   8048870 <fread@plt>
 804905d:	83 c4 20             	add    $0x20,%esp
 8049060:	83 f8 01             	cmp    $0x1,%eax
 8049063:	0f 85 5b 01 00 00    	jne    80491c4 <strcpy@plt+0x7f4>
 8049069:	a1 50 d8 04 08       	mov    0x804d850,%eax
 804906e:	ff 70 0c             	push   0xc(%eax)
 8049071:	e8 a6 1b 00 00       	call   804ac1c <strcpy@plt+0x224c>
 8049076:	83 c4 04             	add    $0x4,%esp
 8049079:	85 c0                	test   %eax,%eax
 804907b:	0f 84 21 01 00 00    	je     80491a2 <strcpy@plt+0x7d2>
 8049081:	a1 50 d8 04 08       	mov    0x804d850,%eax
 8049086:	ff 70 0c             	push   0xc(%eax)
 8049089:	e8 8e 1b 00 00       	call   804ac1c <strcpy@plt+0x224c>
 804908e:	50                   	push   %eax
 804908f:	e8 94 fc ff ff       	call   8048d28 <strcpy@plt+0x358>
 8049094:	a3 1c d8 04 08       	mov    %eax,0x804d81c
 8049099:	6a 00                	push   $0x0
 804909b:	a1 50 d8 04 08       	mov    0x804d850,%eax
 80490a0:	ff 70 08             	push   0x8(%eax)
 80490a3:	e8 74 1b 00 00       	call   804ac1c <strcpy@plt+0x224c>
 80490a8:	83 c4 04             	add    $0x4,%esp
 80490ab:	50                   	push   %eax
 80490ac:	8b 4d f4             	mov    -0xc(%ebp),%ecx
 80490af:	51                   	push   %ecx
 80490b0:	e8 fb f7 ff ff       	call   80488b0 <fseek@plt>
 80490b5:	8b 4d f4             	mov    -0xc(%ebp),%ecx
 80490b8:	51                   	push   %ecx
 80490b9:	6a 01                	push   $0x1
 80490bb:	a1 50 d8 04 08       	mov    0x804d850,%eax
 80490c0:	ff 70 0c             	push   0xc(%eax)
 80490c3:	e8 54 1b 00 00       	call   804ac1c <strcpy@plt+0x224c>
 80490c8:	83 c4 04             	add    $0x4,%esp
 80490cb:	50                   	push   %eax
 80490cc:	ff 35 1c d8 04 08    	push   0x804d81c
 80490d2:	e8 99 f7 ff ff       	call   8048870 <fread@plt>
 80490d7:	83 c4 24             	add    $0x24,%esp
 80490da:	83 f8 01             	cmp    $0x1,%eax
 80490dd:	0f 85 e1 00 00 00    	jne    80491c4 <strcpy@plt+0x7f4>
 80490e3:	8b 35 1c d8 04 08    	mov    0x804d81c,%esi
 80490e9:	a1 50 d8 04 08       	mov    0x804d850,%eax
 80490ee:	ff 70 0c             	push   0xc(%eax)
 80490f1:	e8 26 1b 00 00       	call   804ac1c <strcpy@plt+0x224c>
 80490f6:	01 f0                	add    %esi,%eax
 80490f8:	89 45 f0             	mov    %eax,-0x10(%ebp)
 80490fb:	83 c4 04             	add    $0x4,%esp
 80490fe:	39 c6                	cmp    %eax,%esi
 8049100:	0f 83 a6 00 00 00    	jae    80491ac <strcpy@plt+0x7dc>
 8049106:	ff 36                	push   (%esi)
 8049108:	e8 0f 1b 00 00       	call   804ac1c <strcpy@plt+0x224c>
 804910d:	c1 e0 04             	shl    $0x4,%eax
 8049110:	8b 4d fc             	mov    -0x4(%ebp),%ecx
 8049113:	ff 74 08 14          	push   0x14(%eax,%ecx,1)
 8049117:	e8 00 1b 00 00       	call   804ac1c <strcpy@plt+0x224c>
 804911c:	89 45 f8             	mov    %eax,-0x8(%ebp)
 804911f:	ff 36                	push   (%esi)
 8049121:	e8 f6 1a 00 00       	call   804ac1c <strcpy@plt+0x224c>
 8049126:	c1 e0 04             	shl    $0x4,%eax
 8049129:	8b 4d fc             	mov    -0x4(%ebp),%ecx
 804912c:	ff 74 08 18          	push   0x18(%eax,%ecx,1)
 8049130:	e8 e7 1a 00 00       	call   804ac1c <strcpy@plt+0x224c>
 8049135:	89 c7                	mov    %eax,%edi
 8049137:	ff 36                	push   (%esi)
 8049139:	e8 de 1a 00 00       	call   804ac1c <strcpy@plt+0x224c>
 804913e:	89 c3                	mov    %eax,%ebx
 8049140:	57                   	push   %edi
 8049141:	e8 e2 fb ff ff       	call   8048d28 <strcpy@plt+0x358>
 8049146:	89 c2                	mov    %eax,%edx
 8049148:	a1 00 d8 04 08       	mov    0x804d800,%eax
 804914d:	89 14 98             	mov    %edx,(%eax,%ebx,4)
 8049150:	6a 00                	push   $0x0
 8049152:	8b 4d f8             	mov    -0x8(%ebp),%ecx
 8049155:	51                   	push   %ecx
 8049156:	8b 4d f4             	mov    -0xc(%ebp),%ecx
 8049159:	51                   	push   %ecx
 804915a:	e8 51 f7 ff ff       	call   80488b0 <fseek@plt>
 804915f:	83 c4 24             	add    $0x24,%esp
 8049162:	8b 4d f4             	mov    -0xc(%ebp),%ecx
 8049165:	51                   	push   %ecx
 8049166:	6a 01                	push   $0x1
 8049168:	57                   	push   %edi
 8049169:	ff 36                	push   (%esi)
 804916b:	e8 ac 1a 00 00       	call   804ac1c <strcpy@plt+0x224c>
 8049170:	83 c4 04             	add    $0x4,%esp
 8049173:	89 c2                	mov    %eax,%edx
 8049175:	a1 00 d8 04 08       	mov    0x804d800,%eax
 804917a:	ff 34 90             	push   (%eax,%edx,4)
 804917d:	e8 ee f6 ff ff       	call   8048870 <fread@plt>
 8049182:	83 c4 10             	add    $0x10,%esp
 8049185:	83 f8 01             	cmp    $0x1,%eax
 8049188:	75 3a                	jne    80491c4 <strcpy@plt+0x7f4>
 804918a:	ff 76 04             	push   0x4(%esi)
 804918d:	e8 8a 1a 00 00       	call   804ac1c <strcpy@plt+0x224c>
 8049192:	01 c6                	add    %eax,%esi
 8049194:	83 c4 04             	add    $0x4,%esp
 8049197:	3b 75 f0             	cmp    -0x10(%ebp),%esi
 804919a:	0f 82 66 ff ff ff    	jb     8049106 <strcpy@plt+0x736>
 80491a0:	eb 0a                	jmp    80491ac <strcpy@plt+0x7dc>
 80491a2:	c7 05 44 d8 04 08 00 	movl   $0x0,0x804d844
 80491a9:	00 00 00 
 80491ac:	8b 4d f4             	mov    -0xc(%ebp),%ecx
 80491af:	51                   	push   %ecx
 80491b0:	e8 5b f7 ff ff       	call   8048910 <fclose@plt>
 80491b5:	eb 1f                	jmp    80491d6 <strcpy@plt+0x806>
 80491b7:	ff 35 14 d8 04 08    	push   0x804d814
 80491bd:	68 7e bc 04 08       	push   $0x804bc7e
 80491c2:	eb 0b                	jmp    80491cf <strcpy@plt+0x7ff>
 80491c4:	ff 35 14 d8 04 08    	push   0x804d814
 80491ca:	68 98 bc 04 08       	push   $0x804bc98
 80491cf:	6a 02                	push   $0x2
 80491d1:	e8 be fa ff ff       	call   8048c94 <strcpy@plt+0x2c4>
 80491d6:	8d 65 e4             	lea    -0x1c(%ebp),%esp
 80491d9:	5b                   	pop    %ebx
 80491da:	5e                   	pop    %esi
 80491db:	5f                   	pop    %edi
 80491dc:	c9                   	leave
 80491dd:	c3                   	ret
 80491de:	89 f6                	mov    %esi,%esi
 80491e0:	55                   	push   %ebp
 80491e1:	89 e5                	mov    %esp,%ebp
 80491e3:	53                   	push   %ebx
 80491e4:	8b 45 08             	mov    0x8(%ebp),%eax
 80491e7:	8b 5d 0c             	mov    0xc(%ebp),%ebx
 80491ea:	89 d9                	mov    %ebx,%ecx
 80491ec:	83 e1 1f             	and    $0x1f,%ecx
 80491ef:	ba 01 00 00 00       	mov    $0x1,%edx
 80491f4:	d3 e2                	shl    %cl,%edx
 80491f6:	c1 fb 05             	sar    $0x5,%ebx
 80491f9:	85 14 98             	test   %edx,(%eax,%ebx,4)
 80491fc:	0f 95 c0             	setne  %al
 80491ff:	25 ff 00 00 00       	and    $0xff,%eax
 8049204:	8b 5d fc             	mov    -0x4(%ebp),%ebx
 8049207:	c9                   	leave
 8049208:	c3                   	ret
 8049209:	8d 76 00             	lea    0x0(%esi),%esi
 804920c:	55                   	push   %ebp
 804920d:	89 e5                	mov    %esp,%ebp
 804920f:	56                   	push   %esi
 8049210:	53                   	push   %ebx
 8049211:	8b 45 0c             	mov    0xc(%ebp),%eax
 8049214:	8b 5d 10             	mov    0x10(%ebp),%ebx
 8049217:	89 c2                	mov    %eax,%edx
 8049219:	c1 fa 05             	sar    $0x5,%edx
 804921c:	8d 34 95 00 00 00 00 	lea    0x0(,%edx,4),%esi
 8049223:	03 75 08             	add    0x8(%ebp),%esi
 8049226:	83 e0 1f             	and    $0x1f,%eax
 8049229:	ba 01 00 00 00       	mov    $0x1,%edx
 804922e:	89 c1                	mov    %eax,%ecx
 8049230:	d3 e2                	shl    %cl,%edx
 8049232:	85 db                	test   %ebx,%ebx
 8049234:	74 0a                	je     8049240 <strcpy@plt+0x870>
 8049236:	09 16                	or     %edx,(%esi)
 8049238:	eb 0a                	jmp    8049244 <strcpy@plt+0x874>
 804923a:	8d b6 00 00 00 00    	lea    0x0(%esi),%esi
 8049240:	f7 d2                	not    %edx
 8049242:	21 16                	and    %edx,(%esi)
 8049244:	89 d8                	mov    %ebx,%eax
 8049246:	8d 65 f8             	lea    -0x8(%ebp),%esp
 8049249:	5b                   	pop    %ebx
 804924a:	5e                   	pop    %esi
 804924b:	c9                   	leave
 804924c:	c3                   	ret
 804924d:	8d 76 00             	lea    0x0(%esi),%esi
 8049250:	55                   	push   %ebp
 8049251:	89 e5                	mov    %esp,%ebp
 8049253:	53                   	push   %ebx
 8049254:	8b 5d 08             	mov    0x8(%ebp),%ebx
 8049257:	31 c9                	xor    %ecx,%ecx
 8049259:	80 3b 00             	cmpb   $0x0,(%ebx)
 804925c:	74 28                	je     8049286 <strcpy@plt+0x8b6>
 804925e:	89 f6                	mov    %esi,%esi
 8049260:	89 ca                	mov    %ecx,%edx
 8049262:	c1 e2 04             	shl    $0x4,%edx
 8049265:	0f b6 03             	movzbl (%ebx),%eax
 8049268:	8d 0c 10             	lea    (%eax,%edx,1),%ecx
 804926b:	43                   	inc    %ebx
 804926c:	89 ca                	mov    %ecx,%edx
 804926e:	81 e2 00 00 00 f0    	and    $0xf0000000,%edx
 8049274:	74 07                	je     804927d <strcpy@plt+0x8ad>
 8049276:	89 d0                	mov    %edx,%eax
 8049278:	c1 e8 18             	shr    $0x18,%eax
 804927b:	31 c1                	xor    %eax,%ecx
 804927d:	f7 d2                	not    %edx
 804927f:	21 d1                	and    %edx,%ecx
 8049281:	80 3b 00             	cmpb   $0x0,(%ebx)
 8049284:	75 da                	jne    8049260 <strcpy@plt+0x890>
 8049286:	89 c8                	mov    %ecx,%eax
 8049288:	8b 5d fc             	mov    -0x4(%ebp),%ebx
 804928b:	c9                   	leave
 804928c:	c3                   	ret
 804928d:	8d 76 00             	lea    0x0(%esi),%esi
 8049290:	55                   	push   %ebp
 8049291:	89 e5                	mov    %esp,%ebp
 8049293:	83 ec 04             	sub    $0x4,%esp
 8049296:	57                   	push   %edi
 8049297:	56                   	push   %esi
 8049298:	53                   	push   %ebx
 8049299:	8b 75 08             	mov    0x8(%ebp),%esi
 804929c:	56                   	push   %esi
 804929d:	e8 ae ff ff ff       	call   8049250 <strcpy@plt+0x880>
 80492a2:	89 c3                	mov    %eax,%ebx
 80492a4:	81 e3 ff 7f 00 00    	and    $0x7fff,%ebx
 80492aa:	53                   	push   %ebx
 80492ab:	68 80 d8 04 08       	push   $0x804d880
 80492b0:	e8 2b ff ff ff       	call   80491e0 <strcpy@plt+0x810>
 80492b5:	89 c2                	mov    %eax,%edx
 80492b7:	83 c4 0c             	add    $0xc,%esp
 80492ba:	85 d2                	test   %edx,%edx
 80492bc:	74 27                	je     80492e5 <strcpy@plt+0x915>
 80492be:	8b 1d d0 d7 04 08    	mov    0x804d7d0,%ebx
 80492c4:	85 db                	test   %ebx,%ebx
 80492c6:	74 2d                	je     80492f5 <strcpy@plt+0x925>
 80492c8:	56                   	push   %esi
 80492c9:	8d 43 14             	lea    0x14(%ebx),%eax
 80492cc:	50                   	push   %eax
 80492cd:	e8 2e f5 ff ff       	call   8048800 <strcmp@plt>
 80492d2:	83 c4 08             	add    $0x8,%esp
 80492d5:	85 c0                	test   %eax,%eax
 80492d7:	0f 84 93 00 00 00    	je     8049370 <strcpy@plt+0x9a0>
 80492dd:	8b 1b                	mov    (%ebx),%ebx
 80492df:	85 db                	test   %ebx,%ebx
 80492e1:	75 e5                	jne    80492c8 <strcpy@plt+0x8f8>
 80492e3:	eb 10                	jmp    80492f5 <strcpy@plt+0x925>
 80492e5:	6a 01                	push   $0x1
 80492e7:	53                   	push   %ebx
 80492e8:	68 80 d8 04 08       	push   $0x804d880
 80492ed:	e8 1a ff ff ff       	call   804920c <strcpy@plt+0x83c>
 80492f2:	83 c4 0c             	add    $0xc,%esp
 80492f5:	ff 05 48 d8 04 08    	incl   0x804d848
 80492fb:	8b 45 14             	mov    0x14(%ebp),%eax
 80492fe:	83 c0 03             	add    $0x3,%eax
 8049301:	24 fc                	and    $0xfc,%al
 8049303:	01 05 3c d8 04 08    	add    %eax,0x804d83c
 8049309:	89 f7                	mov    %esi,%edi
 804930b:	31 c0                	xor    %eax,%eax
 804930d:	fc                   	cld
 804930e:	b9 ff ff ff ff       	mov    $0xffffffff,%ecx
 8049313:	f2 ae                	repnz scas %es:(%edi),%al
 8049315:	f7 d1                	not    %ecx
 8049317:	83 c1 03             	add    $0x3,%ecx
 804931a:	83 e1 fc             	and    $0xfffffffc,%ecx
 804931d:	89 4d fc             	mov    %ecx,-0x4(%ebp)
 8049320:	01 0d 40 d8 04 08    	add    %ecx,0x804d840
 8049326:	89 c8                	mov    %ecx,%eax
 8049328:	83 c0 18             	add    $0x18,%eax
 804932b:	50                   	push   %eax
 804932c:	e8 f7 f9 ff ff       	call   8048d28 <strcpy@plt+0x358>
 8049331:	89 c3                	mov    %eax,%ebx
 8049333:	83 c4 04             	add    $0x4,%esp
 8049336:	56                   	push   %esi
 8049337:	8d 43 14             	lea    0x14(%ebx),%eax
 804933a:	50                   	push   %eax
 804933b:	e8 90 f6 ff ff       	call   80489d0 <strcpy@plt>
 8049340:	8b 45 0c             	mov    0xc(%ebp),%eax
 8049343:	89 43 10             	mov    %eax,0x10(%ebx)
 8049346:	8b 45 18             	mov    0x18(%ebp),%eax
 8049349:	89 43 0c             	mov    %eax,0xc(%ebx)
 804934c:	8b 45 10             	mov    0x10(%ebp),%eax
 804934f:	89 43 04             	mov    %eax,0x4(%ebx)
 8049352:	8b 45 14             	mov    0x14(%ebp),%eax
 8049355:	89 43 08             	mov    %eax,0x8(%ebx)
 8049358:	c7 03 00 00 00 00    	movl   $0x0,(%ebx)
 804935e:	8b 15 d4 d7 04 08    	mov    0x804d7d4,%edx
 8049364:	85 d2                	test   %edx,%edx
 8049366:	74 18                	je     8049380 <strcpy@plt+0x9b0>
 8049368:	89 1a                	mov    %ebx,(%edx)
 804936a:	eb 1a                	jmp    8049386 <strcpy@plt+0x9b6>
 804936c:	8d 74 26 00          	lea    0x0(%esi,%eiz,1),%esi
 8049370:	56                   	push   %esi
 8049371:	68 ab bc 04 08       	push   $0x804bcab
 8049376:	6a 02                	push   $0x2
 8049378:	e8 17 f9 ff ff       	call   8048c94 <strcpy@plt+0x2c4>
 804937d:	eb 0d                	jmp    804938c <strcpy@plt+0x9bc>
 804937f:	90                   	nop
 8049380:	89 1d d0 d7 04 08    	mov    %ebx,0x804d7d0
 8049386:	89 1d d4 d7 04 08    	mov    %ebx,0x804d7d4
 804938c:	8d 65 f0             	lea    -0x10(%ebp),%esp
 804938f:	5b                   	pop    %ebx
 8049390:	5e                   	pop    %esi
 8049391:	5f                   	pop    %edi
 8049392:	c9                   	leave
 8049393:	c3                   	ret
 8049394:	55                   	push   %ebp
 8049395:	89 e5                	mov    %esp,%ebp
 8049397:	83 ec 1c             	sub    $0x1c,%esp
 804939a:	57                   	push   %edi
 804939b:	56                   	push   %esi
 804939c:	53                   	push   %ebx
 804939d:	a1 4c d8 04 08       	mov    0x804d84c,%eax
 80493a2:	89 45 f4             	mov    %eax,-0xc(%ebp)
 80493a5:	a1 c8 d7 04 08       	mov    0x804d7c8,%eax
 80493aa:	e9 fc 00 00 00       	jmp    80494ab <strcpy@plt+0xadb>
 80493af:	90                   	nop
 80493b0:	c7 45 f0 00 00 00 00 	movl   $0x0,-0x10(%ebp)
 80493b7:	8b 45 fc             	mov    -0x4(%ebp),%eax
 80493ba:	83 c0 04             	add    $0x4,%eax
 80493bd:	89 45 ec             	mov    %eax,-0x14(%ebp)
 80493c0:	50                   	push   %eax
 80493c1:	e8 ae f9 ff ff       	call   8048d74 <strcpy@plt+0x3a4>
 80493c6:	83 c4 04             	add    $0x4,%esp
 80493c9:	8b 15 50 d8 04 08    	mov    0x804d850,%edx
 80493cf:	85 d2                	test   %edx,%edx
 80493d1:	0f 84 bc 00 00 00    	je     8049493 <strcpy@plt+0xac3>
 80493d7:	8b 1d 1c d8 04 08    	mov    0x804d81c,%ebx
 80493dd:	ff 72 0c             	push   0xc(%edx)
 80493e0:	e8 37 18 00 00       	call   804ac1c <strcpy@plt+0x224c>
 80493e5:	01 d8                	add    %ebx,%eax
 80493e7:	89 45 f8             	mov    %eax,-0x8(%ebp)
 80493ea:	83 c4 04             	add    $0x4,%esp
 80493ed:	39 c3                	cmp    %eax,%ebx
 80493ef:	0f 83 98 00 00 00    	jae    804948d <strcpy@plt+0xabd>
 80493f5:	83 3b 00             	cmpl   $0x0,(%ebx)
 80493f8:	74 7d                	je     8049477 <strcpy@plt+0xaa7>
 80493fa:	8d 73 0c             	lea    0xc(%ebx),%esi
 80493fd:	56                   	push   %esi
 80493fe:	8b 45 ec             	mov    -0x14(%ebp),%eax
 8049401:	50                   	push   %eax
 8049402:	e8 d9 f6 ff ff       	call   8048ae0 <strcpy@plt+0x110>
 8049407:	89 c2                	mov    %eax,%edx
 8049409:	83 c4 08             	add    $0x8,%esp
 804940c:	85 d2                	test   %edx,%edx
 804940e:	75 67                	jne    8049477 <strcpy@plt+0xaa7>
 8049410:	89 f7                	mov    %esi,%edi
 8049412:	31 c0                	xor    %eax,%eax
 8049414:	fc                   	cld
 8049415:	b9 ff ff ff ff       	mov    $0xffffffff,%ecx
 804941a:	f2 ae                	repnz scas %es:(%edi),%al
 804941c:	f7 d1                	not    %ecx
 804941e:	83 c1 03             	add    $0x3,%ecx
 8049421:	83 e1 fc             	and    $0xfffffffc,%ecx
 8049424:	8d 44 0b 0c          	lea    0xc(%ebx,%ecx,1),%eax
 8049428:	89 45 e8             	mov    %eax,-0x18(%ebp)
 804942b:	ff 33                	push   (%ebx)
 804942d:	e8 ea 17 00 00       	call   804ac1c <strcpy@plt+0x224c>
 8049432:	89 c2                	mov    %eax,%edx
 8049434:	a1 00 d8 04 08       	mov    0x804d800,%eax
 8049439:	8b 3c 90             	mov    (%eax,%edx,4),%edi
 804943c:	c1 e2 04             	shl    $0x4,%edx
 804943f:	8b 45 f4             	mov    -0xc(%ebp),%eax
 8049442:	ff 74 02 18          	push   0x18(%edx,%eax,1)
 8049446:	e8 d1 17 00 00       	call   804ac1c <strcpy@plt+0x224c>
 804944b:	89 c2                	mov    %eax,%edx
 804944d:	c7 45 f0 01 00 00 00 	movl   $0x1,-0x10(%ebp)
 8049454:	83 c4 08             	add    $0x8,%esp
 8049457:	83 3d 34 d8 04 08 03 	cmpl   $0x3,0x804d834
 804945e:	74 11                	je     8049471 <strcpy@plt+0xaa1>
 8049460:	8b 45 e8             	mov    -0x18(%ebp),%eax
 8049463:	50                   	push   %eax
 8049464:	52                   	push   %edx
 8049465:	57                   	push   %edi
 8049466:	6a 00                	push   $0x0
 8049468:	56                   	push   %esi
 8049469:	e8 22 fe ff ff       	call   8049290 <strcpy@plt+0x8c0>
 804946e:	83 c4 14             	add    $0x14,%esp
 8049471:	c7 03 00 00 00 00    	movl   $0x0,(%ebx)
 8049477:	ff 73 04             	push   0x4(%ebx)
 804947a:	e8 9d 17 00 00       	call   804ac1c <strcpy@plt+0x224c>
 804947f:	01 c3                	add    %eax,%ebx
 8049481:	83 c4 04             	add    $0x4,%esp
 8049484:	3b 5d f8             	cmp    -0x8(%ebp),%ebx
 8049487:	0f 82 68 ff ff ff    	jb     80493f5 <strcpy@plt+0xa25>
 804948d:	83 7d f0 00          	cmpl   $0x0,-0x10(%ebp)
 8049491:	75 13                	jne    80494a6 <strcpy@plt+0xad6>
 8049493:	8b 45 ec             	mov    -0x14(%ebp),%eax
 8049496:	50                   	push   %eax
 8049497:	68 c8 bc 04 08       	push   $0x804bcc8
 804949c:	6a 02                	push   $0x2
 804949e:	e8 f1 f7 ff ff       	call   8048c94 <strcpy@plt+0x2c4>
 80494a3:	83 c4 0c             	add    $0xc,%esp
 80494a6:	8b 45 fc             	mov    -0x4(%ebp),%eax
 80494a9:	8b 00                	mov    (%eax),%eax
 80494ab:	89 45 fc             	mov    %eax,-0x4(%ebp)
 80494ae:	85 c0                	test   %eax,%eax
 80494b0:	0f 85 fa fe ff ff    	jne    80493b0 <strcpy@plt+0x9e0>
 80494b6:	8d 65 d8             	lea    -0x28(%ebp),%esp
 80494b9:	5b                   	pop    %ebx
 80494ba:	5e                   	pop    %esi
 80494bb:	5f                   	pop    %edi
 80494bc:	c9                   	leave
 80494bd:	c3                   	ret
 80494be:	89 f6                	mov    %esi,%esi
 80494c0:	55                   	push   %ebp
 80494c1:	89 e5                	mov    %esp,%ebp
 80494c3:	57                   	push   %edi
 80494c4:	56                   	push   %esi
 80494c5:	53                   	push   %ebx
 80494c6:	8b 7d 08             	mov    0x8(%ebp),%edi
 80494c9:	a1 50 d8 04 08       	mov    0x804d850,%eax
 80494ce:	85 c0                	test   %eax,%eax
 80494d0:	74 40                	je     8049512 <strcpy@plt+0xb42>
 80494d2:	8b 1d 1c d8 04 08    	mov    0x804d81c,%ebx
 80494d8:	ff 70 0c             	push   0xc(%eax)
 80494db:	e8 3c 17 00 00       	call   804ac1c <strcpy@plt+0x224c>
 80494e0:	8d 34 18             	lea    (%eax,%ebx,1),%esi
 80494e3:	eb 26                	jmp    804950b <strcpy@plt+0xb3b>
 80494e5:	83 3b 00             	cmpl   $0x0,(%ebx)
 80494e8:	74 17                	je     8049501 <strcpy@plt+0xb31>
 80494ea:	8d 43 0c             	lea    0xc(%ebx),%eax
 80494ed:	50                   	push   %eax
 80494ee:	57                   	push   %edi
 80494ef:	e8 ec f5 ff ff       	call   8048ae0 <strcpy@plt+0x110>
 80494f4:	83 c4 08             	add    $0x8,%esp
 80494f7:	85 c0                	test   %eax,%eax
 80494f9:	75 06                	jne    8049501 <strcpy@plt+0xb31>
 80494fb:	c7 03 00 00 00 00    	movl   $0x0,(%ebx)
 8049501:	ff 73 04             	push   0x4(%ebx)
 8049504:	e8 13 17 00 00       	call   804ac1c <strcpy@plt+0x224c>
 8049509:	01 c3                	add    %eax,%ebx
 804950b:	83 c4 04             	add    $0x4,%esp
 804950e:	39 f3                	cmp    %esi,%ebx
 8049510:	72 d3                	jb     80494e5 <strcpy@plt+0xb15>
 8049512:	8d 65 f4             	lea    -0xc(%ebp),%esp
 8049515:	5b                   	pop    %ebx
 8049516:	5e                   	pop    %esi
 8049517:	5f                   	pop    %edi
 8049518:	c9                   	leave
 8049519:	c3                   	ret
 804951a:	89 f6                	mov    %esi,%esi
 804951c:	55                   	push   %ebp
 804951d:	89 e5                	mov    %esp,%ebp
 804951f:	56                   	push   %esi
 8049520:	53                   	push   %ebx
 8049521:	68 33 bc 04 08       	push   $0x804bc33
 8049526:	ff 75 08             	push   0x8(%ebp)
 8049529:	e8 72 f4 ff ff       	call   80489a0 <fopen@plt>
 804952e:	89 c3                	mov    %eax,%ebx
 8049530:	83 c4 08             	add    $0x8,%esp
 8049533:	85 db                	test   %ebx,%ebx
 8049535:	74 1c                	je     8049553 <strcpy@plt+0xb83>
 8049537:	6a 02                	push   $0x2
 8049539:	6a 00                	push   $0x0
 804953b:	53                   	push   %ebx
 804953c:	e8 6f f3 ff ff       	call   80488b0 <fseek@plt>
 8049541:	53                   	push   %ebx
 8049542:	e8 f9 f2 ff ff       	call   8048840 <ftell@plt>
 8049547:	89 c6                	mov    %eax,%esi
 8049549:	53                   	push   %ebx
 804954a:	e8 c1 f3 ff ff       	call   8048910 <fclose@plt>
 804954f:	89 f0                	mov    %esi,%eax
 8049551:	eb 05                	jmp    8049558 <strcpy@plt+0xb88>
 8049553:	b8 ff ff ff ff       	mov    $0xffffffff,%eax
 8049558:	8d 65 f8             	lea    -0x8(%ebp),%esp
 804955b:	5b                   	pop    %ebx
 804955c:	5e                   	pop    %esi
 804955d:	c9                   	leave
 804955e:	c3                   	ret
 804955f:	90                   	nop
 8049560:	55                   	push   %ebp
 8049561:	89 e5                	mov    %esp,%ebp
 8049563:	83 ec 38             	sub    $0x38,%esp
 8049566:	57                   	push   %edi
 8049567:	56                   	push   %esi
 8049568:	53                   	push   %ebx
 8049569:	a1 c8 d7 04 08       	mov    0x804d7c8,%eax
 804956e:	89 45 dc             	mov    %eax,-0x24(%ebp)
 8049571:	85 c0                	test   %eax,%eax
 8049573:	0f 84 95 01 00 00    	je     804970e <strcpy@plt+0xd3e>
 8049579:	8d 4d e8             	lea    -0x18(%ebp),%ecx
 804957c:	89 4d d0             	mov    %ecx,-0x30(%ebp)
 804957f:	8d 45 e0             	lea    -0x20(%ebp),%eax
 8049582:	89 45 cc             	mov    %eax,-0x34(%ebp)
 8049585:	c7 45 d8 00 00 00 00 	movl   $0x0,-0x28(%ebp)
 804958c:	c7 45 d4 00 00 00 00 	movl   $0x0,-0x2c(%ebp)
 8049593:	c6 45 fd 03          	movb   $0x3,-0x3(%ebp)
 8049597:	8b 4d d0             	mov    -0x30(%ebp),%ecx
 804959a:	51                   	push   %ecx
 804959b:	68 d9 bc 04 08       	push   $0x804bcd9
 80495a0:	8b 5d dc             	mov    -0x24(%ebp),%ebx
 80495a3:	83 c3 04             	add    $0x4,%ebx
 80495a6:	53                   	push   %ebx
 80495a7:	e8 b0 1b 00 00       	call   804b15c <strcpy@plt+0x278c>
 80495ac:	83 c4 0c             	add    $0xc,%esp
 80495af:	83 7d ec 00          	cmpl   $0x0,-0x14(%ebp)
 80495b3:	75 06                	jne    80495bb <strcpy@plt+0xbeb>
 80495b5:	83 7d e8 00          	cmpl   $0x0,-0x18(%ebp)
 80495b9:	74 48                	je     8049603 <strcpy@plt+0xc33>
 80495bb:	c6 45 fa 00          	movb   $0x0,-0x6(%ebp)
 80495bf:	c6 45 fb 00          	movb   $0x0,-0x5(%ebp)
 80495c3:	0f b6 55 f9          	movzbl -0x7(%ebp),%edx
 80495c7:	0f b6 45 f8          	movzbl -0x8(%ebp),%eax
 80495cb:	8d 54 10 02          	lea    0x2(%eax,%edx,1),%edx
 80495cf:	89 55 d4             	mov    %edx,-0x2c(%ebp)
 80495d2:	52                   	push   %edx
 80495d3:	e8 50 f7 ff ff       	call   8048d28 <strcpy@plt+0x358>
 80495d8:	89 45 d8             	mov    %eax,-0x28(%ebp)
 80495db:	8b 4d d4             	mov    -0x2c(%ebp),%ecx
 80495de:	51                   	push   %ecx
 80495df:	50                   	push   %eax
 80495e0:	6a 00                	push   $0x0
 80495e2:	8b 4d d0             	mov    -0x30(%ebp),%ecx
 80495e5:	51                   	push   %ecx
 80495e6:	e8 e1 1c 00 00       	call   804b2cc <strcpy@plt+0x28fc>
 80495eb:	8b 7d d8             	mov    -0x28(%ebp),%edi
 80495ee:	31 c0                	xor    %eax,%eax
 80495f0:	fc                   	cld
 80495f1:	b9 ff ff ff ff       	mov    $0xffffffff,%ecx
 80495f6:	f2 ae                	repnz scas %es:(%edi),%al
 80495f8:	89 ca                	mov    %ecx,%edx
 80495fa:	f7 d2                	not    %edx
 80495fc:	4a                   	dec    %edx
 80495fd:	89 55 d4             	mov    %edx,-0x2c(%ebp)
 8049600:	83 c4 14             	add    $0x14,%esp
 8049603:	8b 45 cc             	mov    -0x34(%ebp),%eax
 8049606:	50                   	push   %eax
 8049607:	ff 75 f0             	push   -0x10(%ebp)
 804960a:	8b 4d d8             	mov    -0x28(%ebp),%ecx
 804960d:	51                   	push   %ecx
 804960e:	e8 ed 22 00 00       	call   804b900 <strcpy@plt+0x2f30>
 8049613:	89 c6                	mov    %eax,%esi
 8049615:	83 c4 0c             	add    $0xc,%esp
 8049618:	85 f6                	test   %esi,%esi
 804961a:	75 15                	jne    8049631 <strcpy@plt+0xc61>
 804961c:	53                   	push   %ebx
 804961d:	68 db bc 04 08       	push   $0x804bcdb
 8049622:	6a 02                	push   $0x2
 8049624:	e8 6b f6 ff ff       	call   8048c94 <strcpy@plt+0x2c4>
 8049629:	83 c4 0c             	add    $0xc,%esp
 804962c:	e9 c1 00 00 00       	jmp    80496f2 <strcpy@plt+0xd22>
 8049631:	89 f7                	mov    %esi,%edi
 8049633:	31 c0                	xor    %eax,%eax
 8049635:	fc                   	cld
 8049636:	b9 ff ff ff ff       	mov    $0xffffffff,%ecx
 804963b:	f2 ae                	repnz scas %es:(%edi),%al
 804963d:	89 ca                	mov    %ecx,%edx
 804963f:	8b 45 d4             	mov    -0x2c(%ebp),%eax
 8049642:	89 45 c8             	mov    %eax,-0x38(%ebp)
 8049645:	29 55 c8             	sub    %edx,-0x38(%ebp)
 8049648:	8b 4d c8             	mov    -0x38(%ebp),%ecx
 804964b:	51                   	push   %ecx
 804964c:	e8 d7 f6 ff ff       	call   8048d28 <strcpy@plt+0x358>
 8049651:	89 c3                	mov    %eax,%ebx
 8049653:	83 c4 04             	add    $0x4,%esp
 8049656:	83 7d d8 00          	cmpl   $0x0,-0x28(%ebp)
 804965a:	74 20                	je     804967c <strcpy@plt+0xcac>
 804965c:	8b 45 d8             	mov    -0x28(%ebp),%eax
 804965f:	50                   	push   %eax
 8049660:	53                   	push   %ebx
 8049661:	e8 6a f3 ff ff       	call   80489d0 <strcpy@plt>
 8049666:	83 c4 08             	add    $0x8,%esp
 8049669:	80 7d f9 00          	cmpb   $0x0,-0x7(%ebp)
 804966d:	74 0d                	je     804967c <strcpy@plt+0xcac>
 804966f:	8a 4d fe             	mov    -0x2(%ebp),%cl
 8049672:	8b 45 d4             	mov    -0x2c(%ebp),%eax
 8049675:	88 0c 18             	mov    %cl,(%eax,%ebx,1)
 8049678:	40                   	inc    %eax
 8049679:	89 45 d4             	mov    %eax,-0x2c(%ebp)
 804967c:	56                   	push   %esi
 804967d:	8b 4d d4             	mov    -0x2c(%ebp),%ecx
 8049680:	01 d9                	add    %ebx,%ecx
 8049682:	51                   	push   %ecx
 8049683:	e8 48 f3 ff ff       	call   80489d0 <strcpy@plt>
 8049688:	83 c4 08             	add    $0x8,%esp
 804968b:	53                   	push   %ebx
 804968c:	e8 8b fe ff ff       	call   804951c <strcpy@plt+0xb4c>
 8049691:	89 c2                	mov    %eax,%edx
 8049693:	83 c4 04             	add    $0x4,%esp
 8049696:	85 d2                	test   %edx,%edx
 8049698:	7d 16                	jge    80496b0 <strcpy@plt+0xce0>
 804969a:	53                   	push   %ebx
 804969b:	68 db bc 04 08       	push   $0x804bcdb
 80496a0:	6a 02                	push   $0x2
 80496a2:	e8 ed f5 ff ff       	call   8048c94 <strcpy@plt+0x2c4>
 80496a7:	83 c4 0c             	add    $0xc,%esp
 80496aa:	eb 30                	jmp    80496dc <strcpy@plt+0xd0c>
 80496ac:	8d 74 26 00          	lea    0x0(%esi,%eiz,1),%esi
 80496b0:	83 3d 38 d8 04 08 00 	cmpl   $0x0,0x804d838
 80496b7:	74 09                	je     80496c2 <strcpy@plt+0xcf2>
 80496b9:	0f b6 45 f8          	movzbl -0x8(%ebp),%eax
 80496bd:	8d 3c 18             	lea    (%eax,%ebx,1),%edi
 80496c0:	eb 02                	jmp    80496c4 <strcpy@plt+0xcf4>
 80496c2:	89 f7                	mov    %esi,%edi
 80496c4:	68 c0 d7 04 08       	push   $0x804d7c0
 80496c9:	52                   	push   %edx
 80496ca:	6a 00                	push   $0x0
 80496cc:	53                   	push   %ebx
 80496cd:	57                   	push   %edi
 80496ce:	e8 bd fb ff ff       	call   8049290 <strcpy@plt+0x8c0>
 80496d3:	57                   	push   %edi
 80496d4:	e8 e7 fd ff ff       	call   80494c0 <strcpy@plt+0xaf0>
 80496d9:	83 c4 18             	add    $0x18,%esp
 80496dc:	8b 45 cc             	mov    -0x34(%ebp),%eax
 80496df:	50                   	push   %eax
 80496e0:	e8 6b 22 00 00       	call   804b950 <strcpy@plt+0x2f80>
 80496e5:	89 c6                	mov    %eax,%esi
 80496e7:	83 c4 04             	add    $0x4,%esp
 80496ea:	85 f6                	test   %esi,%esi
 80496ec:	0f 85 3f ff ff ff    	jne    8049631 <strcpy@plt+0xc61>
 80496f2:	8b 4d cc             	mov    -0x34(%ebp),%ecx
 80496f5:	51                   	push   %ecx
 80496f6:	e8 9d 22 00 00       	call   804b998 <strcpy@plt+0x2fc8>
 80496fb:	83 c4 04             	add    $0x4,%esp
 80496fe:	8b 45 dc             	mov    -0x24(%ebp),%eax
 8049701:	8b 00                	mov    (%eax),%eax
 8049703:	89 45 dc             	mov    %eax,-0x24(%ebp)
 8049706:	85 c0                	test   %eax,%eax
 8049708:	0f 85 77 fe ff ff    	jne    8049585 <strcpy@plt+0xbb5>
 804970e:	8d 65 bc             	lea    -0x44(%ebp),%esp
 8049711:	5b                   	pop    %ebx
 8049712:	5e                   	pop    %esi
 8049713:	5f                   	pop    %edi
 8049714:	c9                   	leave
 8049715:	c3                   	ret
 8049716:	89 f6                	mov    %esi,%esi
 8049718:	55                   	push   %ebp
 8049719:	89 e5                	mov    %esp,%ebp
 804971b:	83 ec 0c             	sub    $0xc,%esp
 804971e:	57                   	push   %edi
 804971f:	56                   	push   %esi
 8049720:	53                   	push   %ebx
 8049721:	8b 15 50 d8 04 08    	mov    0x804d850,%edx
 8049727:	85 d2                	test   %edx,%edx
 8049729:	0f 84 97 00 00 00    	je     80497c6 <strcpy@plt+0xdf6>
 804972f:	a1 4c d8 04 08       	mov    0x804d84c,%eax
 8049734:	89 45 f8             	mov    %eax,-0x8(%ebp)
 8049737:	8b 1d 1c d8 04 08    	mov    0x804d81c,%ebx
 804973d:	ff 72 0c             	push   0xc(%edx)
 8049740:	e8 d7 14 00 00       	call   804ac1c <strcpy@plt+0x224c>
 8049745:	89 c2                	mov    %eax,%edx
 8049747:	01 da                	add    %ebx,%edx
 8049749:	89 55 fc             	mov    %edx,-0x4(%ebp)
 804974c:	83 c4 04             	add    $0x4,%esp
 804974f:	39 d3                	cmp    %edx,%ebx
 8049751:	73 73                	jae    80497c6 <strcpy@plt+0xdf6>
 8049753:	8b 13                	mov    (%ebx),%edx
 8049755:	85 d2                	test   %edx,%edx
 8049757:	74 5b                	je     80497b4 <strcpy@plt+0xde4>
 8049759:	8d 73 0c             	lea    0xc(%ebx),%esi
 804975c:	89 f7                	mov    %esi,%edi
 804975e:	31 c0                	xor    %eax,%eax
 8049760:	fc                   	cld
 8049761:	b9 ff ff ff ff       	mov    $0xffffffff,%ecx
 8049766:	f2 ae                	repnz scas %es:(%edi),%al
 8049768:	f7 d1                	not    %ecx
 804976a:	83 c1 03             	add    $0x3,%ecx
 804976d:	83 e1 fc             	and    $0xfffffffc,%ecx
 8049770:	8d 44 0b 0c          	lea    0xc(%ebx,%ecx,1),%eax
 8049774:	50                   	push   %eax
 8049775:	52                   	push   %edx
 8049776:	e8 a1 14 00 00       	call   804ac1c <strcpy@plt+0x224c>
 804977b:	83 c4 04             	add    $0x4,%esp
 804977e:	89 c2                	mov    %eax,%edx
 8049780:	c1 e2 04             	shl    $0x4,%edx
 8049783:	8b 45 f8             	mov    -0x8(%ebp),%eax
 8049786:	ff 74 02 18          	push   0x18(%edx,%eax,1)
 804978a:	e8 8d 14 00 00       	call   804ac1c <strcpy@plt+0x224c>
 804978f:	83 c4 04             	add    $0x4,%esp
 8049792:	89 c2                	mov    %eax,%edx
 8049794:	52                   	push   %edx
 8049795:	ff 33                	push   (%ebx)
 8049797:	e8 80 14 00 00       	call   804ac1c <strcpy@plt+0x224c>
 804979c:	83 c4 04             	add    $0x4,%esp
 804979f:	89 c2                	mov    %eax,%edx
 80497a1:	a1 00 d8 04 08       	mov    0x804d800,%eax
 80497a6:	ff 34 90             	push   (%eax,%edx,4)
 80497a9:	6a 00                	push   $0x0
 80497ab:	56                   	push   %esi
 80497ac:	e8 df fa ff ff       	call   8049290 <strcpy@plt+0x8c0>
 80497b1:	83 c4 14             	add    $0x14,%esp
 80497b4:	ff 73 04             	push   0x4(%ebx)
 80497b7:	e8 60 14 00 00       	call   804ac1c <strcpy@plt+0x224c>
 80497bc:	01 c3                	add    %eax,%ebx
 80497be:	83 c4 04             	add    $0x4,%esp
 80497c1:	3b 5d fc             	cmp    -0x4(%ebp),%ebx
 80497c4:	72 8d                	jb     8049753 <strcpy@plt+0xd83>
 80497c6:	8d 65 e8             	lea    -0x18(%ebp),%esp
 80497c9:	5b                   	pop    %ebx
 80497ca:	5e                   	pop    %esi
 80497cb:	5f                   	pop    %edi
 80497cc:	c9                   	leave
 80497cd:	c3                   	ret
 80497ce:	89 f6                	mov    %esi,%esi
 80497d0:	55                   	push   %ebp
 80497d1:	89 e5                	mov    %esp,%ebp
 80497d3:	83 ec 18             	sub    $0x18,%esp
 80497d6:	c6 45 fd 03          	movb   $0x3,-0x3(%ebp)
 80497da:	8d 45 e8             	lea    -0x18(%ebp),%eax
 80497dd:	50                   	push   %eax
 80497de:	68 d9 bc 04 08       	push   $0x804bcd9
 80497e3:	ff 75 08             	push   0x8(%ebp)
 80497e6:	e8 71 19 00 00       	call   804b15c <strcpy@plt+0x278c>
 80497eb:	83 3d 38 d8 04 08 00 	cmpl   $0x0,0x804d838
 80497f2:	74 07                	je     80497fb <strcpy@plt+0xe2b>
 80497f4:	8b 45 ec             	mov    -0x14(%ebp),%eax
 80497f7:	85 c0                	test   %eax,%eax
 80497f9:	75 0f                	jne    804980a <strcpy@plt+0xe3a>
 80497fb:	8b 45 f4             	mov    -0xc(%ebp),%eax
 80497fe:	85 c0                	test   %eax,%eax
 8049800:	74 05                	je     8049807 <strcpy@plt+0xe37>
 8049802:	39 45 f0             	cmp    %eax,-0x10(%ebp)
 8049805:	73 03                	jae    804980a <strcpy@plt+0xe3a>
 8049807:	8b 45 f0             	mov    -0x10(%ebp),%eax
 804980a:	c9                   	leave
 804980b:	c3                   	ret
 804980c:	55                   	push   %ebp
 804980d:	89 e5                	mov    %esp,%ebp
 804980f:	83 ec 08             	sub    $0x8,%esp
 8049812:	57                   	push   %edi
 8049813:	56                   	push   %esi
 8049814:	53                   	push   %ebx
 8049815:	a1 d0 d7 04 08       	mov    0x804d7d0,%eax
 804981a:	e9 da 00 00 00       	jmp    80498f9 <strcpy@plt+0xf29>
 804981f:	90                   	nop
 8049820:	8b 45 fc             	mov    -0x4(%ebp),%eax
 8049823:	83 c0 14             	add    $0x14,%eax
 8049826:	50                   	push   %eax
 8049827:	e8 a4 ff ff ff       	call   80497d0 <strcpy@plt+0xe00>
 804982c:	89 c6                	mov    %eax,%esi
 804982e:	83 c4 04             	add    $0x4,%esp
 8049831:	8b 3d 20 d8 04 08    	mov    0x804d820,%edi
 8049837:	85 ff                	test   %edi,%edi
 8049839:	74 57                	je     8049892 <strcpy@plt+0xec2>
 804983b:	31 c0                	xor    %eax,%eax
 804983d:	fc                   	cld
 804983e:	b9 ff ff ff ff       	mov    $0xffffffff,%ecx
 8049843:	f2 ae                	repnz scas %es:(%edi),%al
 8049845:	f7 d1                	not    %ecx
 8049847:	8d 59 ff             	lea    -0x1(%ecx),%ebx
 804984a:	89 f7                	mov    %esi,%edi
 804984c:	fc                   	cld
 804984d:	b9 ff ff ff ff       	mov    $0xffffffff,%ecx
 8049852:	f2 ae                	repnz scas %es:(%edi),%al
 8049854:	89 5d f8             	mov    %ebx,-0x8(%ebp)
 8049857:	29 4d f8             	sub    %ecx,-0x8(%ebp)
 804985a:	8b 45 f8             	mov    -0x8(%ebp),%eax
 804985d:	50                   	push   %eax
 804985e:	e8 c5 f4 ff ff       	call   8048d28 <strcpy@plt+0x358>
 8049863:	89 c7                	mov    %eax,%edi
 8049865:	83 c4 04             	add    $0x4,%esp
 8049868:	ff 35 20 d8 04 08    	push   0x804d820
 804986e:	57                   	push   %edi
 804986f:	e8 5c f1 ff ff       	call   80489d0 <strcpy@plt>
 8049874:	83 c4 08             	add    $0x8,%esp
 8049877:	8a 05 ef bc 04 08    	mov    0x804bcef,%al
 804987d:	88 04 3b             	mov    %al,(%ebx,%edi,1)
 8049880:	56                   	push   %esi
 8049881:	8d 5c 3b 01          	lea    0x1(%ebx,%edi,1),%ebx
 8049885:	53                   	push   %ebx
 8049886:	e8 45 f1 ff ff       	call   80489d0 <strcpy@plt>
 804988b:	83 c4 08             	add    $0x8,%esp
 804988e:	89 fb                	mov    %edi,%ebx
 8049890:	eb 02                	jmp    8049894 <strcpy@plt+0xec4>
 8049892:	89 f3                	mov    %esi,%ebx
 8049894:	68 f0 bc 04 08       	push   $0x804bcf0
 8049899:	53                   	push   %ebx
 804989a:	e8 01 f1 ff ff       	call   80489a0 <fopen@plt>
 804989f:	89 c7                	mov    %eax,%edi
 80498a1:	83 c4 08             	add    $0x8,%esp
 80498a4:	85 ff                	test   %edi,%edi
 80498a6:	75 18                	jne    80498c0 <strcpy@plt+0xef0>
 80498a8:	53                   	push   %ebx
 80498a9:	68 f3 bc 04 08       	push   $0x804bcf3
 80498ae:	6a 02                	push   $0x2
 80498b0:	e8 df f3 ff ff       	call   8048c94 <strcpy@plt+0x2c4>
 80498b5:	83 c4 0c             	add    $0xc,%esp
 80498b8:	eb 3a                	jmp    80498f4 <strcpy@plt+0xf24>
 80498ba:	8d b6 00 00 00 00    	lea    0x0(%esi),%esi
 80498c0:	57                   	push   %edi
 80498c1:	6a 01                	push   $0x1
 80498c3:	8b 45 fc             	mov    -0x4(%ebp),%eax
 80498c6:	ff 70 08             	push   0x8(%eax)
 80498c9:	ff 70 04             	push   0x4(%eax)
 80498cc:	e8 df f0 ff ff       	call   80489b0 <fwrite@plt>
 80498d1:	89 c2                	mov    %eax,%edx
 80498d3:	83 c4 10             	add    $0x10,%esp
 80498d6:	83 fa 01             	cmp    $0x1,%edx
 80498d9:	74 10                	je     80498eb <strcpy@plt+0xf1b>
 80498db:	53                   	push   %ebx
 80498dc:	68 0b bd 04 08       	push   $0x804bd0b
 80498e1:	6a 02                	push   $0x2
 80498e3:	e8 ac f3 ff ff       	call   8048c94 <strcpy@plt+0x2c4>
 80498e8:	83 c4 0c             	add    $0xc,%esp
 80498eb:	57                   	push   %edi
 80498ec:	e8 1f f0 ff ff       	call   8048910 <fclose@plt>
 80498f1:	83 c4 04             	add    $0x4,%esp
 80498f4:	8b 45 fc             	mov    -0x4(%ebp),%eax
 80498f7:	8b 00                	mov    (%eax),%eax
 80498f9:	89 45 fc             	mov    %eax,-0x4(%ebp)
 80498fc:	85 c0                	test   %eax,%eax
 80498fe:	0f 85 1c ff ff ff    	jne    8049820 <strcpy@plt+0xe50>
 8049904:	8d 65 ec             	lea    -0x14(%ebp),%esp
 8049907:	5b                   	pop    %ebx
 8049908:	5e                   	pop    %esi
 8049909:	5f                   	pop    %edi
 804990a:	c9                   	leave
 804990b:	c3                   	ret
 804990c:	55                   	push   %ebp
 804990d:	89 e5                	mov    %esp,%ebp
 804990f:	57                   	push   %edi
 8049910:	56                   	push   %esi
 8049911:	53                   	push   %ebx
 8049912:	8b 7d 08             	mov    0x8(%ebp),%edi
 8049915:	8b 5d 10             	mov    0x10(%ebp),%ebx
 8049918:	8b 75 14             	mov    0x14(%ebp),%esi
 804991b:	6a 08                	push   $0x8
 804991d:	ff 75 0c             	push   0xc(%ebp)
 8049920:	57                   	push   %edi
 8049921:	e8 6a f0 ff ff       	call   8048990 <strncpy@plt>
 8049926:	83 c4 0c             	add    $0xc,%esp
 8049929:	53                   	push   %ebx
 804992a:	e8 ed 12 00 00       	call   804ac1c <strcpy@plt+0x224c>
 804992f:	89 47 08             	mov    %eax,0x8(%edi)
 8049932:	56                   	push   %esi
 8049933:	e8 e4 12 00 00       	call   804ac1c <strcpy@plt+0x224c>
 8049938:	89 47 0c             	mov    %eax,0xc(%edi)
 804993b:	89 f8                	mov    %edi,%eax
 804993d:	8d 65 f4             	lea    -0xc(%ebp),%esp
 8049940:	5b                   	pop    %ebx
 8049941:	5e                   	pop    %esi
 8049942:	5f                   	pop    %edi
 8049943:	c9                   	leave
 8049944:	c3                   	ret
 8049945:	8d 76 00             	lea    0x0(%esi),%esi
 8049948:	55                   	push   %ebp
 8049949:	89 e5                	mov    %esp,%ebp
 804994b:	83 ec 64             	sub    $0x64,%esp
 804994e:	57                   	push   %edi
 804994f:	56                   	push   %esi
 8049950:	53                   	push   %ebx
 8049951:	c7 45 f0 00 00 00 00 	movl   $0x0,-0x10(%ebp)
 8049958:	c7 45 e8 00 00 00 00 	movl   $0x0,-0x18(%ebp)
 804995f:	c7 45 d0 00 00 00 00 	movl   $0x0,-0x30(%ebp)
 8049966:	8b 1d 48 d8 04 08    	mov    0x804d848,%ebx
 804996c:	85 db                	test   %ebx,%ebx
 804996e:	74 19                	je     8049989 <strcpy@plt+0xfb9>
 8049970:	8d 04 dd 00 00 00 00 	lea    0x0(,%ebx,8),%eax
 8049977:	50                   	push   %eax
 8049978:	e8 ab f3 ff ff       	call   8048d28 <strcpy@plt+0x358>
 804997d:	89 45 d0             	mov    %eax,-0x30(%ebp)
 8049980:	83 c4 04             	add    $0x4,%esp
 8049983:	8b 1d 48 d8 04 08    	mov    0x804d848,%ebx
 8049989:	8d 43 03             	lea    0x3(%ebx),%eax
 804998c:	89 45 ec             	mov    %eax,-0x14(%ebp)
 804998f:	83 3d 28 d8 04 08 00 	cmpl   $0x0,0x804d828
 8049996:	74 06                	je     804999e <strcpy@plt+0xfce>
 8049998:	8d 53 05             	lea    0x5(%ebx),%edx
 804999b:	89 55 ec             	mov    %edx,-0x14(%ebp)
 804999e:	8d 1c 9b             	lea    (%ebx,%ebx,4),%ebx
 80499a1:	8b 0d 40 d8 04 08    	mov    0x804d840,%ecx
 80499a7:	8d 0c 99             	lea    (%ecx,%ebx,4),%ecx
 80499aa:	89 4d f8             	mov    %ecx,-0x8(%ebp)
 80499ad:	8b 45 ec             	mov    -0x14(%ebp),%eax
 80499b0:	89 45 cc             	mov    %eax,-0x34(%ebp)
 80499b3:	c1 65 cc 04          	shll   $0x4,-0x34(%ebp)
 80499b7:	8b 55 cc             	mov    -0x34(%ebp),%edx
 80499ba:	83 c2 18             	add    $0x18,%edx
 80499bd:	89 55 fc             	mov    %edx,-0x4(%ebp)
 80499c0:	89 d3                	mov    %edx,%ebx
 80499c2:	01 cb                	add    %ecx,%ebx
 80499c4:	8d 4b 08             	lea    0x8(%ebx),%ecx
 80499c7:	51                   	push   %ecx
 80499c8:	e8 5b f3 ff ff       	call   8048d28 <strcpy@plt+0x358>
 80499cd:	89 45 e0             	mov    %eax,-0x20(%ebp)
 80499d0:	a3 18 d8 04 08       	mov    %eax,0x804d818
 80499d5:	a3 4c d8 04 08       	mov    %eax,0x804d84c
 80499da:	03 45 fc             	add    -0x4(%ebp),%eax
 80499dd:	a3 1c d8 04 08       	mov    %eax,0x804d81c
 80499e2:	89 45 d8             	mov    %eax,-0x28(%ebp)
 80499e5:	89 5d fc             	mov    %ebx,-0x4(%ebp)
 80499e8:	68 f0 bc 04 08       	push   $0x804bcf0
 80499ed:	ff 35 14 d8 04 08    	push   0x804d814
 80499f3:	e8 a8 ef ff ff       	call   80489a0 <fopen@plt>
 80499f8:	89 45 d4             	mov    %eax,-0x2c(%ebp)
 80499fb:	83 c4 0c             	add    $0xc,%esp
 80499fe:	85 c0                	test   %eax,%eax
 8049a00:	75 15                	jne    8049a17 <strcpy@plt+0x1047>
 8049a02:	ff 35 14 d8 04 08    	push   0x804d814
 8049a08:	68 f3 bc 04 08       	push   $0x804bcf3
 8049a0d:	6a 02                	push   $0x2
 8049a0f:	e8 80 f2 ff ff       	call   8048c94 <strcpy@plt+0x2c4>
 8049a14:	83 c4 0c             	add    $0xc,%esp
 8049a17:	8b 55 d4             	mov    -0x2c(%ebp),%edx
 8049a1a:	52                   	push   %edx
 8049a1b:	8b 4d fc             	mov    -0x4(%ebp),%ecx
 8049a1e:	51                   	push   %ecx
 8049a1f:	6a 01                	push   $0x1
 8049a21:	8b 45 e0             	mov    -0x20(%ebp),%eax
 8049a24:	50                   	push   %eax
 8049a25:	e8 86 ef ff ff       	call   80489b0 <fwrite@plt>
 8049a2a:	89 c3                	mov    %eax,%ebx
 8049a2c:	83 c4 10             	add    $0x10,%esp
 8049a2f:	3b 5d fc             	cmp    -0x4(%ebp),%ebx
 8049a32:	74 15                	je     8049a49 <strcpy@plt+0x1079>
 8049a34:	ff 35 14 d8 04 08    	push   0x804d814
 8049a3a:	68 24 bd 04 08       	push   $0x804bd24
 8049a3f:	6a 02                	push   $0x2
 8049a41:	e8 4e f2 ff ff       	call   8048c94 <strcpy@plt+0x2c4>
 8049a46:	83 c4 0c             	add    $0xc,%esp
 8049a49:	c7 45 f4 03 00 00 00 	movl   $0x3,-0xc(%ebp)
 8049a50:	8b 55 e0             	mov    -0x20(%ebp),%edx
 8049a53:	83 c2 3c             	add    $0x3c,%edx
 8049a56:	89 55 e4             	mov    %edx,-0x1c(%ebp)
 8049a59:	8b 0d d0 d7 04 08    	mov    0x804d7d0,%ecx
 8049a5f:	89 4d dc             	mov    %ecx,-0x24(%ebp)
 8049a62:	85 c9                	test   %ecx,%ecx
 8049a64:	0f 84 62 04 00 00    	je     8049ecc <strcpy@plt+0x14fc>
 8049a6a:	8b 45 d0             	mov    -0x30(%ebp),%eax
 8049a6d:	89 45 b4             	mov    %eax,-0x4c(%ebp)
 8049a70:	8b 55 dc             	mov    -0x24(%ebp),%edx
 8049a73:	83 c2 14             	add    $0x14,%edx
 8049a76:	89 55 c8             	mov    %edx,-0x38(%ebp)
 8049a79:	8b 4d dc             	mov    -0x24(%ebp),%ecx
 8049a7c:	8b 59 04             	mov    0x4(%ecx),%ebx
 8049a7f:	85 db                	test   %ebx,%ebx
 8049a81:	0f 85 93 00 00 00    	jne    8049b1a <strcpy@plt+0x114a>
 8049a87:	8b 59 10             	mov    0x10(%ecx),%ebx
 8049a8a:	85 db                	test   %ebx,%ebx
 8049a8c:	75 02                	jne    8049a90 <strcpy@plt+0x10c0>
 8049a8e:	89 d3                	mov    %edx,%ebx
 8049a90:	8b 45 dc             	mov    -0x24(%ebp),%eax
 8049a93:	83 78 08 00          	cmpl   $0x0,0x8(%eax)
 8049a97:	75 08                	jne    8049aa1 <strcpy@plt+0x10d1>
 8049a99:	53                   	push   %ebx
 8049a9a:	68 3b bd 04 08       	push   $0x804bd3b
 8049a9f:	eb 2d                	jmp    8049ace <strcpy@plt+0x10fe>
 8049aa1:	68 33 bc 04 08       	push   $0x804bc33
 8049aa6:	53                   	push   %ebx
 8049aa7:	e8 f4 ee ff ff       	call   80489a0 <fopen@plt>
 8049aac:	89 c6                	mov    %eax,%esi
 8049aae:	8b 4d dc             	mov    -0x24(%ebp),%ecx
 8049ab1:	ff 71 08             	push   0x8(%ecx)
 8049ab4:	e8 6f f2 ff ff       	call   8048d28 <strcpy@plt+0x358>
 8049ab9:	89 c7                	mov    %eax,%edi
 8049abb:	8b 45 dc             	mov    -0x24(%ebp),%eax
 8049abe:	89 78 04             	mov    %edi,0x4(%eax)
 8049ac1:	83 c4 0c             	add    $0xc,%esp
 8049ac4:	85 f6                	test   %esi,%esi
 8049ac6:	75 18                	jne    8049ae0 <strcpy@plt+0x1110>
 8049ac8:	53                   	push   %ebx
 8049ac9:	68 f3 bc 04 08       	push   $0x804bcf3
 8049ace:	6a 02                	push   $0x2
 8049ad0:	e8 bf f1 ff ff       	call   8048c94 <strcpy@plt+0x2c4>
 8049ad5:	83 c4 0c             	add    $0xc,%esp
 8049ad8:	8b 55 dc             	mov    -0x24(%ebp),%edx
 8049adb:	8b 5a 04             	mov    0x4(%edx),%ebx
 8049ade:	eb 3a                	jmp    8049b1a <strcpy@plt+0x114a>
 8049ae0:	56                   	push   %esi
 8049ae1:	6a 01                	push   $0x1
 8049ae3:	8b 4d dc             	mov    -0x24(%ebp),%ecx
 8049ae6:	ff 71 08             	push   0x8(%ecx)
 8049ae9:	ff 71 04             	push   0x4(%ecx)
 8049aec:	e8 7f ed ff ff       	call   8048870 <fread@plt>
 8049af1:	89 c7                	mov    %eax,%edi
 8049af3:	83 c4 10             	add    $0x10,%esp
 8049af6:	83 ff 01             	cmp    $0x1,%edi
 8049af9:	74 10                	je     8049b0b <strcpy@plt+0x113b>
 8049afb:	53                   	push   %ebx
 8049afc:	68 98 bc 04 08       	push   $0x804bc98
 8049b01:	6a 02                	push   $0x2
 8049b03:	e8 8c f1 ff ff       	call   8048c94 <strcpy@plt+0x2c4>
 8049b08:	83 c4 0c             	add    $0xc,%esp
 8049b0b:	56                   	push   %esi
 8049b0c:	e8 ff ed ff ff       	call   8048910 <fclose@plt>
 8049b11:	83 c4 04             	add    $0x4,%esp
 8049b14:	8b 45 dc             	mov    -0x24(%ebp),%eax
 8049b17:	8b 58 04             	mov    0x4(%eax),%ebx
 8049b1a:	8b 55 d4             	mov    -0x2c(%ebp),%edx
 8049b1d:	52                   	push   %edx
 8049b1e:	8b 4d dc             	mov    -0x24(%ebp),%ecx
 8049b21:	ff 71 08             	push   0x8(%ecx)
 8049b24:	6a 01                	push   $0x1
 8049b26:	53                   	push   %ebx
 8049b27:	e8 84 ee ff ff       	call   80489b0 <fwrite@plt>
 8049b2c:	89 c3                	mov    %eax,%ebx
 8049b2e:	83 c4 10             	add    $0x10,%esp
 8049b31:	8b 45 dc             	mov    -0x24(%ebp),%eax
 8049b34:	3b 58 08             	cmp    0x8(%eax),%ebx
 8049b37:	74 15                	je     8049b4e <strcpy@plt+0x117e>
 8049b39:	ff 35 14 d8 04 08    	push   0x804d814
 8049b3f:	68 24 bd 04 08       	push   $0x804bd24
 8049b44:	6a 02                	push   $0x2
 8049b46:	e8 49 f1 ff ff       	call   8048c94 <strcpy@plt+0x2c4>
 8049b4b:	83 c4 0c             	add    $0xc,%esp
 8049b4e:	8b 55 dc             	mov    -0x24(%ebp),%edx
 8049b51:	8b 72 04             	mov    0x4(%edx),%esi
 8049b54:	83 3d 44 d8 04 08 00 	cmpl   $0x0,0x804d844
 8049b5b:	75 12                	jne    8049b6f <strcpy@plt+0x119f>
 8049b5d:	3b 15 d0 d7 04 08    	cmp    0x804d7d0,%edx
 8049b63:	75 0a                	jne    8049b6f <strcpy@plt+0x119f>
 8049b65:	ff 36                	push   (%esi)
 8049b67:	e8 24 ef ff ff       	call   8048a90 <strcpy@plt+0xc0>
 8049b6c:	83 c4 04             	add    $0x4,%esp
 8049b6f:	8b 4d dc             	mov    -0x24(%ebp),%ecx
 8049b72:	ff 71 08             	push   0x8(%ecx)
 8049b75:	8b 45 fc             	mov    -0x4(%ebp),%eax
 8049b78:	50                   	push   %eax
 8049b79:	68 50 bd 04 08       	push   $0x804bd50
 8049b7e:	8b 55 e4             	mov    -0x1c(%ebp),%edx
 8049b81:	52                   	push   %edx
 8049b82:	83 c2 10             	add    $0x10,%edx
 8049b85:	89 55 e4             	mov    %edx,-0x1c(%ebp)
 8049b88:	e8 7f fd ff ff       	call   804990c <strcpy@plt+0xf3c>
 8049b8d:	8b 4d dc             	mov    -0x24(%ebp),%ecx
 8049b90:	8b 49 08             	mov    0x8(%ecx),%ecx
 8049b93:	01 4d fc             	add    %ecx,-0x4(%ebp)
 8049b96:	83 c4 10             	add    $0x10,%esp
 8049b99:	8b 45 fc             	mov    -0x4(%ebp),%eax
 8049b9c:	a8 03                	test   $0x3,%al
 8049b9e:	74 3c                	je     8049bdc <strcpy@plt+0x120c>
 8049ba0:	8b 55 d4             	mov    -0x2c(%ebp),%edx
 8049ba3:	52                   	push   %edx
 8049ba4:	6a 01                	push   $0x1
 8049ba6:	6a 01                	push   $0x1
 8049ba8:	68 59 bd 04 08       	push   $0x804bd59
 8049bad:	e8 fe ed ff ff       	call   80489b0 <fwrite@plt>
 8049bb2:	89 c3                	mov    %eax,%ebx
 8049bb4:	83 c4 10             	add    $0x10,%esp
 8049bb7:	83 fb 01             	cmp    $0x1,%ebx
 8049bba:	74 15                	je     8049bd1 <strcpy@plt+0x1201>
 8049bbc:	ff 35 14 d8 04 08    	push   0x804d814
 8049bc2:	68 24 bd 04 08       	push   $0x804bd24
 8049bc7:	6a 02                	push   $0x2
 8049bc9:	e8 c6 f0 ff ff       	call   8048c94 <strcpy@plt+0x2c4>
 8049bce:	83 c4 0c             	add    $0xc,%esp
 8049bd1:	ff 45 fc             	incl   -0x4(%ebp)
 8049bd4:	8b 4d fc             	mov    -0x4(%ebp),%ecx
 8049bd7:	f6 c1 03             	test   $0x3,%cl
 8049bda:	75 c4                	jne    8049ba0 <strcpy@plt+0x11d0>
 8049bdc:	8b 45 f4             	mov    -0xc(%ebp),%eax
 8049bdf:	50                   	push   %eax
 8049be0:	e8 37 10 00 00       	call   804ac1c <strcpy@plt+0x224c>
 8049be5:	89 c3                	mov    %eax,%ebx
 8049be7:	8b 55 d8             	mov    -0x28(%ebp),%edx
 8049bea:	89 1a                	mov    %ebx,(%edx)
 8049bec:	8b 7d c8             	mov    -0x38(%ebp),%edi
 8049bef:	31 c0                	xor    %eax,%eax
 8049bf1:	fc                   	cld
 8049bf2:	b9 ff ff ff ff       	mov    $0xffffffff,%ecx
 8049bf7:	f2 ae                	repnz scas %es:(%edi),%al
 8049bf9:	89 cb                	mov    %ecx,%ebx
 8049bfb:	f7 d3                	not    %ebx
 8049bfd:	8d 7b 03             	lea    0x3(%ebx),%edi
 8049c00:	83 e7 fc             	and    $0xfffffffc,%edi
 8049c03:	8d 47 08             	lea    0x8(%edi),%eax
 8049c06:	50                   	push   %eax
 8049c07:	e8 10 10 00 00       	call   804ac1c <strcpy@plt+0x224c>
 8049c0c:	89 c3                	mov    %eax,%ebx
 8049c0e:	8b 55 d8             	mov    -0x28(%ebp),%edx
 8049c11:	89 5a 08             	mov    %ebx,0x8(%edx)
 8049c14:	8d 4f 14             	lea    0x14(%edi),%ecx
 8049c17:	51                   	push   %ecx
 8049c18:	e8 ff 0f 00 00       	call   804ac1c <strcpy@plt+0x224c>
 8049c1d:	89 c3                	mov    %eax,%ebx
 8049c1f:	8b 45 d8             	mov    -0x28(%ebp),%eax
 8049c22:	89 58 04             	mov    %ebx,0x4(%eax)
 8049c25:	83 c4 0c             	add    $0xc,%esp
 8049c28:	57                   	push   %edi
 8049c29:	8b 55 c8             	mov    -0x38(%ebp),%edx
 8049c2c:	52                   	push   %edx
 8049c2d:	83 c0 0c             	add    $0xc,%eax
 8049c30:	50                   	push   %eax
 8049c31:	e8 5a ed ff ff       	call   8048990 <strncpy@plt>
 8049c36:	83 c4 0c             	add    $0xc,%esp
 8049c39:	8b 4d d8             	mov    -0x28(%ebp),%ecx
 8049c3c:	ff 71 04             	push   0x4(%ecx)
 8049c3f:	e8 d8 0f 00 00       	call   804ac1c <strcpy@plt+0x224c>
 8049c44:	89 c3                	mov    %eax,%ebx
 8049c46:	01 5d d8             	add    %ebx,-0x28(%ebp)
 8049c49:	8b 45 dc             	mov    -0x24(%ebp),%eax
 8049c4c:	8b 40 0c             	mov    0xc(%eax),%eax
 8049c4f:	89 c2                	mov    %eax,%edx
 8049c51:	8b 02                	mov    (%edx),%eax
 8049c53:	8b 52 04             	mov    0x4(%edx),%edx
 8049c56:	8b 4d d8             	mov    -0x28(%ebp),%ecx
 8049c59:	89 41 f8             	mov    %eax,-0x8(%ecx)
 8049c5c:	89 51 fc             	mov    %edx,-0x4(%ecx)
 8049c5f:	83 c4 04             	add    $0x4,%esp
 8049c62:	83 3d 28 d8 04 08 00 	cmpl   $0x0,0x804d828
 8049c69:	0f 84 4a 02 00 00    	je     8049eb9 <strcpy@plt+0x14e9>
 8049c6f:	8b 3e                	mov    (%esi),%edi
 8049c71:	8b 1d 44 d8 04 08    	mov    0x804d844,%ebx
 8049c77:	89 f8                	mov    %edi,%eax
 8049c79:	31 d8                	xor    %ebx,%eax
 8049c7b:	3d 06 0d 0d 06       	cmp    $0x60d0d06,%eax
 8049c80:	75 10                	jne    8049c92 <strcpy@plt+0x12c2>
 8049c82:	8b 45 c8             	mov    -0x38(%ebp),%eax
 8049c85:	50                   	push   %eax
 8049c86:	68 60 bd 04 08       	push   $0x804bd60
 8049c8b:	6a 02                	push   $0x2
 8049c8d:	e9 44 01 00 00       	jmp    8049dd6 <strcpy@plt+0x1406>
 8049c92:	39 df                	cmp    %ebx,%edi
 8049c94:	74 10                	je     8049ca6 <strcpy@plt+0x12d6>
 8049c96:	8b 55 c8             	mov    -0x38(%ebp),%edx
 8049c99:	52                   	push   %edx
 8049c9a:	68 a0 bd 04 08       	push   $0x804bda0
 8049c9f:	6a 02                	push   $0x2
 8049ca1:	e9 30 01 00 00       	jmp    8049dd6 <strcpy@plt+0x1406>
 8049ca6:	8b 4d dc             	mov    -0x24(%ebp),%ecx
 8049ca9:	83 79 08 1b          	cmpl   $0x1b,0x8(%ecx)
 8049cad:	76 2d                	jbe    8049cdc <strcpy@plt+0x130c>
 8049caf:	ff 76 08             	push   0x8(%esi)
 8049cb2:	e8 65 0f 00 00       	call   804ac1c <strcpy@plt+0x224c>
 8049cb7:	89 c3                	mov    %eax,%ebx
 8049cb9:	ff 76 04             	push   0x4(%esi)
 8049cbc:	e8 5b 0f 00 00       	call   804ac1c <strcpy@plt+0x224c>
 8049cc1:	83 c4 08             	add    $0x8,%esp
 8049cc4:	39 c3                	cmp    %eax,%ebx
 8049cc6:	7f 14                	jg     8049cdc <strcpy@plt+0x130c>
 8049cc8:	68 c7 bd 04 08       	push   $0x804bdc7
 8049ccd:	56                   	push   %esi
 8049cce:	e8 79 ee ff ff       	call   8048b4c <strcpy@plt+0x17c>
 8049cd3:	89 c7                	mov    %eax,%edi
 8049cd5:	83 c4 08             	add    $0x8,%esp
 8049cd8:	85 ff                	test   %edi,%edi
 8049cda:	75 14                	jne    8049cf0 <strcpy@plt+0x1320>
 8049cdc:	8b 45 c8             	mov    -0x38(%ebp),%eax
 8049cdf:	50                   	push   %eax
 8049ce0:	68 d0 bd 04 08       	push   $0x804bdd0
 8049ce5:	6a 02                	push   $0x2
 8049ce7:	e9 ea 00 00 00       	jmp    8049dd6 <strcpy@plt+0x1406>
 8049cec:	8d 74 26 00          	lea    0x0(%esi,%eiz,1),%esi
 8049cf0:	ff 77 08             	push   0x8(%edi)
 8049cf3:	e8 24 0f 00 00       	call   804ac1c <strcpy@plt+0x224c>
 8049cf8:	8d 1c 30             	lea    (%eax,%esi,1),%ebx
 8049cfb:	68 e7 bd 04 08       	push   $0x804bde7
 8049d00:	56                   	push   %esi
 8049d01:	e8 46 ee ff ff       	call   8048b4c <strcpy@plt+0x17c>
 8049d06:	89 c7                	mov    %eax,%edi
 8049d08:	83 c4 0c             	add    $0xc,%esp
 8049d0b:	85 ff                	test   %edi,%edi
 8049d0d:	75 11                	jne    8049d20 <strcpy@plt+0x1350>
 8049d0f:	8b 55 c8             	mov    -0x38(%ebp),%edx
 8049d12:	52                   	push   %edx
 8049d13:	68 f0 bd 04 08       	push   $0x804bdf0
 8049d18:	e9 b7 00 00 00       	jmp    8049dd4 <strcpy@plt+0x1404>
 8049d1d:	8d 76 00             	lea    0x0(%esi),%esi
 8049d20:	ff 77 08             	push   0x8(%edi)
 8049d23:	e8 f4 0e 00 00       	call   804ac1c <strcpy@plt+0x224c>
 8049d28:	01 f0                	add    %esi,%eax
 8049d2a:	89 45 c4             	mov    %eax,-0x3c(%ebp)
 8049d2d:	68 07 be 04 08       	push   $0x804be07
 8049d32:	56                   	push   %esi
 8049d33:	e8 14 ee ff ff       	call   8048b4c <strcpy@plt+0x17c>
 8049d38:	89 c7                	mov    %eax,%edi
 8049d3a:	83 c4 0c             	add    $0xc,%esp
 8049d3d:	85 ff                	test   %edi,%edi
 8049d3f:	75 10                	jne    8049d51 <strcpy@plt+0x1381>
 8049d41:	8b 4d c8             	mov    -0x38(%ebp),%ecx
 8049d44:	51                   	push   %ecx
 8049d45:	68 10 be 04 08       	push   $0x804be10
 8049d4a:	6a 02                	push   $0x2
 8049d4c:	e9 85 00 00 00       	jmp    8049dd6 <strcpy@plt+0x1406>
 8049d51:	ff 77 08             	push   0x8(%edi)
 8049d54:	e8 c3 0e 00 00       	call   804ac1c <strcpy@plt+0x224c>
 8049d59:	89 c7                	mov    %eax,%edi
 8049d5b:	01 fe                	add    %edi,%esi
 8049d5d:	89 75 bc             	mov    %esi,-0x44(%ebp)
 8049d60:	ff 73 0c             	push   0xc(%ebx)
 8049d63:	e8 b4 0e 00 00       	call   804ac1c <strcpy@plt+0x224c>
 8049d68:	89 45 b8             	mov    %eax,-0x48(%ebp)
 8049d6b:	c1 65 b8 04          	shll   $0x4,-0x48(%ebp)
 8049d6f:	8b 45 c4             	mov    -0x3c(%ebp),%eax
 8049d72:	03 45 b8             	add    -0x48(%ebp),%eax
 8049d75:	89 45 c0             	mov    %eax,-0x40(%ebp)
 8049d78:	31 f6                	xor    %esi,%esi
 8049d7a:	8b 5d c4             	mov    -0x3c(%ebp),%ebx
 8049d7d:	83 c4 08             	add    $0x8,%esp
 8049d80:	39 c3                	cmp    %eax,%ebx
 8049d82:	73 40                	jae    8049dc4 <strcpy@plt+0x13f4>
 8049d84:	ff 73 04             	push   0x4(%ebx)
 8049d87:	e8 90 0e 00 00       	call   804ac1c <strcpy@plt+0x224c>
 8049d8c:	83 e0 03             	and    $0x3,%eax
 8049d8f:	83 c4 04             	add    $0x4,%esp
 8049d92:	83 f8 03             	cmp    $0x3,%eax
 8049d95:	75 25                	jne    8049dbc <strcpy@plt+0x13ec>
 8049d97:	ff 33                	push   (%ebx)
 8049d99:	e8 7e 0e 00 00       	call   804ac1c <strcpy@plt+0x224c>
 8049d9e:	89 c7                	mov    %eax,%edi
 8049da0:	03 7d bc             	add    -0x44(%ebp),%edi
 8049da3:	31 c0                	xor    %eax,%eax
 8049da5:	fc                   	cld
 8049da6:	b9 ff ff ff ff       	mov    $0xffffffff,%ecx
 8049dab:	f2 ae                	repnz scas %es:(%edi),%al
 8049dad:	f7 d1                	not    %ecx
 8049daf:	83 c1 03             	add    $0x3,%ecx
 8049db2:	83 e1 fc             	and    $0xfffffffc,%ecx
 8049db5:	8d 74 31 0c          	lea    0xc(%ecx,%esi,1),%esi
 8049db9:	83 c4 04             	add    $0x4,%esp
 8049dbc:	83 c3 10             	add    $0x10,%ebx
 8049dbf:	3b 5d c0             	cmp    -0x40(%ebp),%ebx
 8049dc2:	72 c0                	jb     8049d84 <strcpy@plt+0x13b4>
 8049dc4:	01 75 f0             	add    %esi,-0x10(%ebp)
 8049dc7:	85 f6                	test   %esi,%esi
 8049dc9:	75 18                	jne    8049de3 <strcpy@plt+0x1413>
 8049dcb:	8b 45 c8             	mov    -0x38(%ebp),%eax
 8049dce:	50                   	push   %eax
 8049dcf:	68 27 be 04 08       	push   $0x804be27
 8049dd4:	6a 01                	push   $0x1
 8049dd6:	e8 b9 ee ff ff       	call   8048c94 <strcpy@plt+0x2c4>
 8049ddb:	83 c4 0c             	add    $0xc,%esp
 8049dde:	e9 d6 00 00 00       	jmp    8049eb9 <strcpy@plt+0x14e9>
 8049de3:	8b 55 b4             	mov    -0x4c(%ebp),%edx
 8049de6:	89 32                	mov    %esi,(%edx)
 8049de8:	56                   	push   %esi
 8049de9:	e8 3a ef ff ff       	call   8048d28 <strcpy@plt+0x358>
 8049dee:	89 c3                	mov    %eax,%ebx
 8049df0:	8b 4d e8             	mov    -0x18(%ebp),%ecx
 8049df3:	8b 45 d0             	mov    -0x30(%ebp),%eax
 8049df6:	89 5c c8 04          	mov    %ebx,0x4(%eax,%ecx,8)
 8049dfa:	89 de                	mov    %ebx,%esi
 8049dfc:	83 45 b4 08          	addl   $0x8,-0x4c(%ebp)
 8049e00:	41                   	inc    %ecx
 8049e01:	89 4d e8             	mov    %ecx,-0x18(%ebp)
 8049e04:	8b 55 c4             	mov    -0x3c(%ebp),%edx
 8049e07:	03 55 b8             	add    -0x48(%ebp),%edx
 8049e0a:	89 55 c0             	mov    %edx,-0x40(%ebp)
 8049e0d:	83 c4 04             	add    $0x4,%esp
 8049e10:	39 55 c4             	cmp    %edx,-0x3c(%ebp)
 8049e13:	0f 83 a0 00 00 00    	jae    8049eb9 <strcpy@plt+0x14e9>
 8049e19:	8d b4 26 00 00 00 00 	lea    0x0(%esi,%eiz,1),%esi
 8049e20:	8b 4d c4             	mov    -0x3c(%ebp),%ecx
 8049e23:	ff 71 04             	push   0x4(%ecx)
 8049e26:	e8 f1 0d 00 00       	call   804ac1c <strcpy@plt+0x224c>
 8049e2b:	89 c3                	mov    %eax,%ebx
 8049e2d:	83 e3 03             	and    $0x3,%ebx
 8049e30:	83 c4 04             	add    $0x4,%esp
 8049e33:	83 fb 03             	cmp    $0x3,%ebx
 8049e36:	75 71                	jne    8049ea9 <strcpy@plt+0x14d9>
 8049e38:	8b 45 c4             	mov    -0x3c(%ebp),%eax
 8049e3b:	ff 30                	push   (%eax)
 8049e3d:	e8 da 0d 00 00       	call   804ac1c <strcpy@plt+0x224c>
 8049e42:	89 c3                	mov    %eax,%ebx
 8049e44:	8b 7d bc             	mov    -0x44(%ebp),%edi
 8049e47:	01 df                	add    %ebx,%edi
 8049e49:	31 c0                	xor    %eax,%eax
 8049e4b:	fc                   	cld
 8049e4c:	b9 ff ff ff ff       	mov    $0xffffffff,%ecx
 8049e51:	f2 ae                	repnz scas %es:(%edi),%al
 8049e53:	89 cb                	mov    %ecx,%ebx
 8049e55:	f7 d3                	not    %ebx
 8049e57:	8d 7b 03             	lea    0x3(%ebx),%edi
 8049e5a:	83 e7 fc             	and    $0xfffffffc,%edi
 8049e5d:	8b 45 f4             	mov    -0xc(%ebp),%eax
 8049e60:	50                   	push   %eax
 8049e61:	e8 b6 0d 00 00       	call   804ac1c <strcpy@plt+0x224c>
 8049e66:	89 c3                	mov    %eax,%ebx
 8049e68:	89 1e                	mov    %ebx,(%esi)
 8049e6a:	57                   	push   %edi
 8049e6b:	e8 ac 0d 00 00       	call   804ac1c <strcpy@plt+0x224c>
 8049e70:	89 c3                	mov    %eax,%ebx
 8049e72:	89 5e 08             	mov    %ebx,0x8(%esi)
 8049e75:	8d 5f 0c             	lea    0xc(%edi),%ebx
 8049e78:	53                   	push   %ebx
 8049e79:	e8 9e 0d 00 00       	call   804ac1c <strcpy@plt+0x224c>
 8049e7e:	89 45 9c             	mov    %eax,-0x64(%ebp)
 8049e81:	89 46 04             	mov    %eax,0x4(%esi)
 8049e84:	83 c4 10             	add    $0x10,%esp
 8049e87:	57                   	push   %edi
 8049e88:	8b 55 c4             	mov    -0x3c(%ebp),%edx
 8049e8b:	ff 32                	push   (%edx)
 8049e8d:	e8 8a 0d 00 00       	call   804ac1c <strcpy@plt+0x224c>
 8049e92:	83 c4 04             	add    $0x4,%esp
 8049e95:	89 c7                	mov    %eax,%edi
 8049e97:	03 7d bc             	add    -0x44(%ebp),%edi
 8049e9a:	57                   	push   %edi
 8049e9b:	8d 4e 0c             	lea    0xc(%esi),%ecx
 8049e9e:	51                   	push   %ecx
 8049e9f:	e8 ec ea ff ff       	call   8048990 <strncpy@plt>
 8049ea4:	83 c4 0c             	add    $0xc,%esp
 8049ea7:	01 de                	add    %ebx,%esi
 8049ea9:	83 45 c4 10          	addl   $0x10,-0x3c(%ebp)
 8049ead:	8b 45 c0             	mov    -0x40(%ebp),%eax
 8049eb0:	39 45 c4             	cmp    %eax,-0x3c(%ebp)
 8049eb3:	0f 82 67 ff ff ff    	jb     8049e20 <strcpy@plt+0x1450>
 8049eb9:	ff 45 f4             	incl   -0xc(%ebp)
 8049ebc:	8b 55 dc             	mov    -0x24(%ebp),%edx
 8049ebf:	8b 12                	mov    (%edx),%edx
 8049ec1:	89 55 dc             	mov    %edx,-0x24(%ebp)
 8049ec4:	85 d2                	test   %edx,%edx
 8049ec6:	0f 85 a4 fb ff ff    	jne    8049a70 <strcpy@plt+0x10a0>
 8049ecc:	81 3d 44 d8 04 08 c3 	cmpl   $0xc5c6cbc3,0x804d844
 8049ed3:	cb c6 c5 
 8049ed6:	75 23                	jne    8049efb <strcpy@plt+0x152b>
 8049ed8:	ff 35 c0 d7 04 08    	push   0x804d7c0
 8049ede:	e8 39 0d 00 00       	call   804ac1c <strcpy@plt+0x224c>
 8049ee3:	a3 c0 d7 04 08       	mov    %eax,0x804d7c0
 8049ee8:	ff 35 c4 d7 04 08    	push   0x804d7c4
 8049eee:	e8 29 0d 00 00       	call   804ac1c <strcpy@plt+0x224c>
 8049ef3:	a3 c4 d7 04 08       	mov    %eax,0x804d7c4
 8049ef8:	83 c4 08             	add    $0x8,%esp
 8049efb:	83 3d 28 d8 04 08 00 	cmpl   $0x0,0x804d828
 8049f02:	0f 84 27 01 00 00    	je     804a02f <strcpy@plt+0x165f>
 8049f08:	6a 08                	push   $0x8
 8049f0a:	8b 4d fc             	mov    -0x4(%ebp),%ecx
 8049f0d:	51                   	push   %ecx
 8049f0e:	68 75 bc 04 08       	push   $0x804bc75
 8049f13:	8b 45 e4             	mov    -0x1c(%ebp),%eax
 8049f16:	50                   	push   %eax
 8049f17:	83 c0 10             	add    $0x10,%eax
 8049f1a:	89 45 e4             	mov    %eax,-0x1c(%ebp)
 8049f1d:	e8 ea f9 ff ff       	call   804990c <strcpy@plt+0xf3c>
 8049f22:	89 c3                	mov    %eax,%ebx
 8049f24:	89 1d 5c d8 04 08    	mov    %ebx,0x804d85c
 8049f2a:	6a 08                	push   $0x8
 8049f2c:	e8 f7 ed ff ff       	call   8048d28 <strcpy@plt+0x358>
 8049f31:	89 c3                	mov    %eax,%ebx
 8049f33:	89 1d 0c d8 04 08    	mov    %ebx,0x804d80c
 8049f39:	a1 c0 d7 04 08       	mov    0x804d7c0,%eax
 8049f3e:	8b 15 c4 d7 04 08    	mov    0x804d7c4,%edx
 8049f44:	89 03                	mov    %eax,(%ebx)
 8049f46:	89 53 04             	mov    %edx,0x4(%ebx)
 8049f49:	8b 55 d4             	mov    -0x2c(%ebp),%edx
 8049f4c:	52                   	push   %edx
 8049f4d:	6a 01                	push   $0x1
 8049f4f:	6a 08                	push   $0x8
 8049f51:	ff 35 0c d8 04 08    	push   0x804d80c
 8049f57:	e8 54 ea ff ff       	call   80489b0 <fwrite@plt>
 8049f5c:	89 c3                	mov    %eax,%ebx
 8049f5e:	83 c4 24             	add    $0x24,%esp
 8049f61:	83 fb 01             	cmp    $0x1,%ebx
 8049f64:	74 15                	je     8049f7b <strcpy@plt+0x15ab>
 8049f66:	ff 35 14 d8 04 08    	push   0x804d814
 8049f6c:	68 24 bd 04 08       	push   $0x804bd24
 8049f71:	6a 02                	push   $0x2
 8049f73:	e8 1c ed ff ff       	call   8048c94 <strcpy@plt+0x2c4>
 8049f78:	83 c4 0c             	add    $0xc,%esp
 8049f7b:	83 45 fc 08          	addl   $0x8,-0x4(%ebp)
 8049f7f:	8b 4d f0             	mov    -0x10(%ebp),%ecx
 8049f82:	51                   	push   %ecx
 8049f83:	8b 45 fc             	mov    -0x4(%ebp),%eax
 8049f86:	50                   	push   %eax
 8049f87:	68 5a bc 04 08       	push   $0x804bc5a
 8049f8c:	8b 55 e4             	mov    -0x1c(%ebp),%edx
 8049f8f:	52                   	push   %edx
 8049f90:	e8 77 f9 ff ff       	call   804990c <strcpy@plt+0xf3c>
 8049f95:	89 c3                	mov    %eax,%ebx
 8049f97:	89 1d 60 d8 04 08    	mov    %ebx,0x804d860
 8049f9d:	83 c4 10             	add    $0x10,%esp
 8049fa0:	83 7d f0 00          	cmpl   $0x0,-0x10(%ebp)
 8049fa4:	0f 8e 85 00 00 00    	jle    804a02f <strcpy@plt+0x165f>
 8049faa:	8b 4d f0             	mov    -0x10(%ebp),%ecx
 8049fad:	51                   	push   %ecx
 8049fae:	e8 75 ed ff ff       	call   8048d28 <strcpy@plt+0x358>
 8049fb3:	89 c3                	mov    %eax,%ebx
 8049fb5:	89 1d 10 d8 04 08    	mov    %ebx,0x804d810
 8049fbb:	89 df                	mov    %ebx,%edi
 8049fbd:	c7 45 e8 00 00 00 00 	movl   $0x0,-0x18(%ebp)
 8049fc4:	83 c4 04             	add    $0x4,%esp
 8049fc7:	8b 45 e8             	mov    -0x18(%ebp),%eax
 8049fca:	3b 05 48 d8 04 08    	cmp    0x804d848,%eax
 8049fd0:	7d 29                	jge    8049ffb <strcpy@plt+0x162b>
 8049fd2:	8b 5d d0             	mov    -0x30(%ebp),%ebx
 8049fd5:	8d 73 04             	lea    0x4(%ebx),%esi
 8049fd8:	ff 33                	push   (%ebx)
 8049fda:	ff 36                	push   (%esi)
 8049fdc:	57                   	push   %edi
 8049fdd:	e8 1e e9 ff ff       	call   8048900 <memcpy@plt>
 8049fe2:	03 3b                	add    (%ebx),%edi
 8049fe4:	83 c4 0c             	add    $0xc,%esp
 8049fe7:	83 c3 08             	add    $0x8,%ebx
 8049fea:	83 c6 08             	add    $0x8,%esi
 8049fed:	ff 45 e8             	incl   -0x18(%ebp)
 8049ff0:	8b 55 e8             	mov    -0x18(%ebp),%edx
 8049ff3:	3b 15 48 d8 04 08    	cmp    0x804d848,%edx
 8049ff9:	7c dd                	jl     8049fd8 <strcpy@plt+0x1608>
 8049ffb:	8b 4d d4             	mov    -0x2c(%ebp),%ecx
 8049ffe:	51                   	push   %ecx
 8049fff:	6a 01                	push   $0x1
 804a001:	8b 45 f0             	mov    -0x10(%ebp),%eax
 804a004:	50                   	push   %eax
 804a005:	ff 35 10 d8 04 08    	push   0x804d810
 804a00b:	e8 a0 e9 ff ff       	call   80489b0 <fwrite@plt>
 804a010:	89 c3                	mov    %eax,%ebx
 804a012:	83 c4 10             	add    $0x10,%esp
 804a015:	83 fb 01             	cmp    $0x1,%ebx
 804a018:	74 15                	je     804a02f <strcpy@plt+0x165f>
 804a01a:	ff 35 14 d8 04 08    	push   0x804d814
 804a020:	68 24 bd 04 08       	push   $0x804bd24
 804a025:	6a 02                	push   $0x2
 804a027:	e8 68 ec ff ff       	call   8048c94 <strcpy@plt+0x2c4>
 804a02c:	83 c4 0c             	add    $0xc,%esp
 804a02f:	8b 1d 44 d8 04 08    	mov    0x804d844,%ebx
 804a035:	85 db                	test   %ebx,%ebx
 804a037:	75 05                	jne    804a03e <strcpy@plt+0x166e>
 804a039:	bb c5 c6 cb c3       	mov    $0xc3cbc6c5,%ebx
 804a03e:	8b 55 e0             	mov    -0x20(%ebp),%edx
 804a041:	89 1a                	mov    %ebx,(%edx)
 804a043:	8b 4d ec             	mov    -0x14(%ebp),%ecx
 804a046:	51                   	push   %ecx
 804a047:	e8 d0 0b 00 00       	call   804ac1c <strcpy@plt+0x224c>
 804a04c:	89 c3                	mov    %eax,%ebx
 804a04e:	8b 45 e0             	mov    -0x20(%ebp),%eax
 804a051:	89 58 08             	mov    %ebx,0x8(%eax)
 804a054:	89 58 04             	mov    %ebx,0x4(%eax)
 804a057:	8b 55 cc             	mov    -0x34(%ebp),%edx
 804a05a:	83 c2 0c             	add    $0xc,%edx
 804a05d:	89 55 fc             	mov    %edx,-0x4(%ebp)
 804a060:	83 c0 0c             	add    $0xc,%eax
 804a063:	6a 08                	push   $0x8
 804a065:	52                   	push   %edx
 804a066:	68 6c bc 04 08       	push   $0x804bc6c
 804a06b:	50                   	push   %eax
 804a06c:	8b 4d e0             	mov    -0x20(%ebp),%ecx
 804a06f:	83 c1 1c             	add    $0x1c,%ecx
 804a072:	89 4d e4             	mov    %ecx,-0x1c(%ebp)
 804a075:	e8 92 f8 ff ff       	call   804990c <strcpy@plt+0xf3c>
 804a07a:	89 c3                	mov    %eax,%ebx
 804a07c:	89 1d 54 d8 04 08    	mov    %ebx,0x804d854
 804a082:	8b 45 e0             	mov    -0x20(%ebp),%eax
 804a085:	03 45 fc             	add    -0x4(%ebp),%eax
 804a088:	89 45 b0             	mov    %eax,-0x50(%ebp)
 804a08b:	a3 08 d8 04 08       	mov    %eax,0x804d808
 804a090:	a1 c0 d7 04 08       	mov    0x804d7c0,%eax
 804a095:	8b 15 c4 d7 04 08    	mov    0x804d7c4,%edx
 804a09b:	8b 4d b0             	mov    -0x50(%ebp),%ecx
 804a09e:	89 01                	mov    %eax,(%ecx)
 804a0a0:	89 51 04             	mov    %edx,0x4(%ecx)
 804a0a3:	8b 45 cc             	mov    -0x34(%ebp),%eax
 804a0a6:	83 c0 14             	add    $0x14,%eax
 804a0a9:	89 45 fc             	mov    %eax,-0x4(%ebp)
 804a0ac:	6a 04                	push   $0x4
 804a0ae:	50                   	push   %eax
 804a0af:	68 63 bc 04 08       	push   $0x804bc63
 804a0b4:	8b 55 e4             	mov    -0x1c(%ebp),%edx
 804a0b7:	52                   	push   %edx
 804a0b8:	8b 4d e0             	mov    -0x20(%ebp),%ecx
 804a0bb:	83 c1 2c             	add    $0x2c,%ecx
 804a0be:	89 4d e4             	mov    %ecx,-0x1c(%ebp)
 804a0c1:	e8 46 f8 ff ff       	call   804990c <strcpy@plt+0xf3c>
 804a0c6:	89 c3                	mov    %eax,%ebx
 804a0c8:	89 1d 58 d8 04 08    	mov    %ebx,0x804d858
 804a0ce:	8b 45 e0             	mov    -0x20(%ebp),%eax
 804a0d1:	03 45 fc             	add    -0x4(%ebp),%eax
 804a0d4:	a3 04 d8 04 08       	mov    %eax,0x804d804
 804a0d9:	83 c4 24             	add    $0x24,%esp
 804a0dc:	6a 01                	push   $0x1
 804a0de:	e8 39 0b 00 00       	call   804ac1c <strcpy@plt+0x224c>
 804a0e3:	89 c3                	mov    %eax,%ebx
 804a0e5:	8b 15 04 d8 04 08    	mov    0x804d804,%edx
 804a0eb:	89 1a                	mov    %ebx,(%edx)
 804a0ed:	8b 4d cc             	mov    -0x34(%ebp),%ecx
 804a0f0:	83 c1 18             	add    $0x18,%ecx
 804a0f3:	8b 45 f8             	mov    -0x8(%ebp),%eax
 804a0f6:	50                   	push   %eax
 804a0f7:	51                   	push   %ecx
 804a0f8:	68 51 bc 04 08       	push   $0x804bc51
 804a0fd:	8b 55 e4             	mov    -0x1c(%ebp),%edx
 804a100:	52                   	push   %edx
 804a101:	e8 06 f8 ff ff       	call   804990c <strcpy@plt+0xf3c>
 804a106:	89 c3                	mov    %eax,%ebx
 804a108:	89 1d 50 d8 04 08    	mov    %ebx,0x804d850
 804a10e:	8b 4d cc             	mov    -0x34(%ebp),%ecx
 804a111:	8b 45 f8             	mov    -0x8(%ebp),%eax
 804a114:	8d 4c 08 18          	lea    0x18(%eax,%ecx,1),%ecx
 804a118:	89 4d fc             	mov    %ecx,-0x4(%ebp)
 804a11b:	6a 00                	push   $0x0
 804a11d:	6a 00                	push   $0x0
 804a11f:	8b 45 d4             	mov    -0x2c(%ebp),%eax
 804a122:	50                   	push   %eax
 804a123:	e8 88 e7 ff ff       	call   80488b0 <fseek@plt>
 804a128:	83 c4 20             	add    $0x20,%esp
 804a12b:	8b 55 d4             	mov    -0x2c(%ebp),%edx
 804a12e:	52                   	push   %edx
 804a12f:	8b 4d fc             	mov    -0x4(%ebp),%ecx
 804a132:	51                   	push   %ecx
 804a133:	6a 01                	push   $0x1
 804a135:	8b 45 e0             	mov    -0x20(%ebp),%eax
 804a138:	50                   	push   %eax
 804a139:	e8 72 e8 ff ff       	call   80489b0 <fwrite@plt>
 804a13e:	89 c3                	mov    %eax,%ebx
 804a140:	83 c4 10             	add    $0x10,%esp
 804a143:	3b 5d fc             	cmp    -0x4(%ebp),%ebx
 804a146:	74 15                	je     804a15d <strcpy@plt+0x178d>
 804a148:	ff 35 14 d8 04 08    	push   0x804d814
 804a14e:	68 24 bd 04 08       	push   $0x804bd24
 804a153:	6a 02                	push   $0x2
 804a155:	e8 3a eb ff ff       	call   8048c94 <strcpy@plt+0x2c4>
 804a15a:	83 c4 0c             	add    $0xc,%esp
 804a15d:	8b 55 d4             	mov    -0x2c(%ebp),%edx
 804a160:	52                   	push   %edx
 804a161:	e8 aa e7 ff ff       	call   8048910 <fclose@plt>
 804a166:	8d 65 90             	lea    -0x70(%ebp),%esp
 804a169:	5b                   	pop    %ebx
 804a16a:	5e                   	pop    %esi
 804a16b:	5f                   	pop    %edi
 804a16c:	c9                   	leave
 804a16d:	c3                   	ret
 804a16e:	89 f6                	mov    %esi,%esi
 804a170:	55                   	push   %ebp
 804a171:	89 e5                	mov    %esp,%ebp
 804a173:	83 ec 5c             	sub    $0x5c,%esp
 804a176:	57                   	push   %edi
 804a177:	56                   	push   %esi
 804a178:	53                   	push   %ebx
 804a179:	83 3d 2c d8 04 08 00 	cmpl   $0x0,0x804d82c
 804a180:	0f 84 9b 00 00 00    	je     804a221 <strcpy@plt+0x1851>
 804a186:	83 3d 58 d8 04 08 00 	cmpl   $0x0,0x804d858
 804a18d:	75 11                	jne    804a1a0 <strcpy@plt+0x17d0>
 804a18f:	68 a0 be 04 08       	push   $0x804bea0
 804a194:	e8 57 e7 ff ff       	call   80488f0 <printf@plt>
 804a199:	83 c4 04             	add    $0x4,%esp
 804a19c:	eb 1c                	jmp    804a1ba <strcpy@plt+0x17ea>
 804a19e:	89 f6                	mov    %esi,%esi
 804a1a0:	a1 04 d8 04 08       	mov    0x804d804,%eax
 804a1a5:	ff 30                	push   (%eax)
 804a1a7:	e8 70 0a 00 00       	call   804ac1c <strcpy@plt+0x224c>
 804a1ac:	50                   	push   %eax
 804a1ad:	68 c6 be 04 08       	push   $0x804bec6
 804a1b2:	e8 39 e7 ff ff       	call   80488f0 <printf@plt>
 804a1b7:	83 c4 0c             	add    $0xc,%esp
 804a1ba:	8d 55 b0             	lea    -0x50(%ebp),%edx
 804a1bd:	89 55 a4             	mov    %edx,-0x5c(%ebp)
 804a1c0:	89 d6                	mov    %edx,%esi
 804a1c2:	56                   	push   %esi
 804a1c3:	ff 35 08 d8 04 08    	push   0x804d808
 804a1c9:	e8 d6 e9 ff ff       	call   8048ba4 <strcpy@plt+0x1d4>
 804a1ce:	50                   	push   %eax
 804a1cf:	68 db be 04 08       	push   $0x804bedb
 804a1d4:	e8 17 e7 ff ff       	call   80488f0 <printf@plt>
 804a1d9:	68 f2 be 04 08       	push   $0x804bef2
 804a1de:	e8 0d e7 ff ff       	call   80488f0 <printf@plt>
 804a1e3:	8b 1d d0 d7 04 08    	mov    0x804d7d0,%ebx
 804a1e9:	83 c4 14             	add    $0x14,%esp
 804a1ec:	85 db                	test   %ebx,%ebx
 804a1ee:	74 24                	je     804a214 <strcpy@plt+0x1844>
 804a1f0:	56                   	push   %esi
 804a1f1:	ff 73 0c             	push   0xc(%ebx)
 804a1f4:	e8 ab e9 ff ff       	call   8048ba4 <strcpy@plt+0x1d4>
 804a1f9:	50                   	push   %eax
 804a1fa:	ff 73 08             	push   0x8(%ebx)
 804a1fd:	8d 43 14             	lea    0x14(%ebx),%eax
 804a200:	50                   	push   %eax
 804a201:	68 ff be 04 08       	push   $0x804beff
 804a206:	e8 e5 e6 ff ff       	call   80488f0 <printf@plt>
 804a20b:	83 c4 18             	add    $0x18,%esp
 804a20e:	8b 1b                	mov    (%ebx),%ebx
 804a210:	85 db                	test   %ebx,%ebx
 804a212:	75 dc                	jne    804a1f0 <strcpy@plt+0x1820>
 804a214:	68 12 bf 04 08       	push   $0x804bf12
 804a219:	e8 d2 e6 ff ff       	call   80488f0 <printf@plt>
 804a21e:	83 c4 04             	add    $0x4,%esp
 804a221:	83 3d 30 d8 04 08 00 	cmpl   $0x0,0x804d830
 804a228:	0f 84 41 01 00 00    	je     804a36f <strcpy@plt+0x199f>
 804a22e:	8d 4d b0             	lea    -0x50(%ebp),%ecx
 804a231:	89 4d a4             	mov    %ecx,-0x5c(%ebp)
 804a234:	83 3d 60 d8 04 08 00 	cmpl   $0x0,0x804d860
 804a23b:	75 0f                	jne    804a24c <strcpy@plt+0x187c>
 804a23d:	68 23 bf 04 08       	push   $0x804bf23
 804a242:	6a 02                	push   $0x2
 804a244:	e8 4b ea ff ff       	call   8048c94 <strcpy@plt+0x2c4>
 804a249:	83 c4 08             	add    $0x8,%esp
 804a24c:	83 3d 2c d8 04 08 00 	cmpl   $0x0,0x804d82c
 804a253:	74 0d                	je     804a262 <strcpy@plt+0x1892>
 804a255:	68 e1 bb 04 08       	push   $0x804bbe1
 804a25a:	e8 91 e6 ff ff       	call   80488f0 <printf@plt>
 804a25f:	83 c4 04             	add    $0x4,%esp
 804a262:	a1 4c d8 04 08       	mov    0x804d84c,%eax
 804a267:	ff 70 04             	push   0x4(%eax)
 804a26a:	e8 ad 09 00 00       	call   804ac1c <strcpy@plt+0x224c>
 804a26f:	c1 e0 02             	shl    $0x2,%eax
 804a272:	50                   	push   %eax
 804a273:	e8 b0 ea ff ff       	call   8048d28 <strcpy@plt+0x358>
 804a278:	89 45 ac             	mov    %eax,-0x54(%ebp)
 804a27b:	a1 4c d8 04 08       	mov    0x804d84c,%eax
 804a280:	ff 70 04             	push   0x4(%eax)
 804a283:	e8 94 09 00 00       	call   804ac1c <strcpy@plt+0x224c>
 804a288:	8d 04 85 04 00 00 00 	lea    0x4(,%eax,4),%eax
 804a28f:	50                   	push   %eax
 804a290:	e8 93 ea ff ff       	call   8048d28 <strcpy@plt+0x358>
 804a295:	89 45 a8             	mov    %eax,-0x58(%ebp)
 804a298:	8b 1d 1c d8 04 08    	mov    0x804d81c,%ebx
 804a29e:	a1 50 d8 04 08       	mov    0x804d850,%eax
 804a2a3:	ff 70 0c             	push   0xc(%eax)
 804a2a6:	e8 71 09 00 00       	call   804ac1c <strcpy@plt+0x224c>
 804a2ab:	8d 3c 18             	lea    (%eax,%ebx,1),%edi
 804a2ae:	83 c4 14             	add    $0x14,%esp
 804a2b1:	39 fb                	cmp    %edi,%ebx
 804a2b3:	73 30                	jae    804a2e5 <strcpy@plt+0x1915>
 804a2b5:	8b 75 a8             	mov    -0x58(%ebp),%esi
 804a2b8:	ff 33                	push   (%ebx)
 804a2ba:	e8 5d 09 00 00       	call   804ac1c <strcpy@plt+0x224c>
 804a2bf:	8d 4b 0c             	lea    0xc(%ebx),%ecx
 804a2c2:	8b 55 ac             	mov    -0x54(%ebp),%edx
 804a2c5:	89 0c 82             	mov    %ecx,(%edx,%eax,4)
 804a2c8:	ff 33                	push   (%ebx)
 804a2ca:	e8 4d 09 00 00       	call   804ac1c <strcpy@plt+0x224c>
 804a2cf:	83 c6 04             	add    $0x4,%esi
 804a2d2:	89 06                	mov    %eax,(%esi)
 804a2d4:	ff 73 04             	push   0x4(%ebx)
 804a2d7:	e8 40 09 00 00       	call   804ac1c <strcpy@plt+0x224c>
 804a2dc:	01 c3                	add    %eax,%ebx
 804a2de:	83 c4 0c             	add    $0xc,%esp
 804a2e1:	39 fb                	cmp    %edi,%ebx
 804a2e3:	72 d3                	jb     804a2b8 <strcpy@plt+0x18e8>
 804a2e5:	8b 55 a4             	mov    -0x5c(%ebp),%edx
 804a2e8:	52                   	push   %edx
 804a2e9:	ff 35 0c d8 04 08    	push   0x804d80c
 804a2ef:	e8 b0 e8 ff ff       	call   8048ba4 <strcpy@plt+0x1d4>
 804a2f4:	50                   	push   %eax
 804a2f5:	68 40 bf 04 08       	push   $0x804bf40
 804a2fa:	e8 f1 e5 ff ff       	call   80488f0 <printf@plt>
 804a2ff:	8b 1d 10 d8 04 08    	mov    0x804d810,%ebx
 804a305:	a1 60 d8 04 08       	mov    0x804d860,%eax
 804a30a:	ff 70 0c             	push   0xc(%eax)
 804a30d:	e8 0a 09 00 00       	call   804ac1c <strcpy@plt+0x224c>
 804a312:	8d 34 18             	lea    (%eax,%ebx,1),%esi
 804a315:	83 c4 14             	add    $0x14,%esp
 804a318:	39 f3                	cmp    %esi,%ebx
 804a31a:	73 49                	jae    804a365 <strcpy@plt+0x1995>
 804a31c:	8d 74 26 00          	lea    0x0(%esi,%eiz,1),%esi
 804a320:	8b 03                	mov    (%ebx),%eax
 804a322:	85 c0                	test   %eax,%eax
 804a324:	74 2e                	je     804a354 <strcpy@plt+0x1984>
 804a326:	83 3d 58 d8 04 08 00 	cmpl   $0x0,0x804d858
 804a32d:	75 08                	jne    804a337 <strcpy@plt+0x1967>
 804a32f:	8b 4d a8             	mov    -0x58(%ebp),%ecx
 804a332:	8b 04 81             	mov    (%ecx,%eax,4),%eax
 804a335:	89 03                	mov    %eax,(%ebx)
 804a337:	50                   	push   %eax
 804a338:	e8 df 08 00 00       	call   804ac1c <strcpy@plt+0x224c>
 804a33d:	8b 55 ac             	mov    -0x54(%ebp),%edx
 804a340:	ff 34 82             	push   (%edx,%eax,4)
 804a343:	8d 43 0c             	lea    0xc(%ebx),%eax
 804a346:	50                   	push   %eax
 804a347:	68 67 bf 04 08       	push   $0x804bf67
 804a34c:	e8 9f e5 ff ff       	call   80488f0 <printf@plt>
 804a351:	83 c4 10             	add    $0x10,%esp
 804a354:	ff 73 04             	push   0x4(%ebx)
 804a357:	e8 c0 08 00 00       	call   804ac1c <strcpy@plt+0x224c>
 804a35c:	01 c3                	add    %eax,%ebx
 804a35e:	83 c4 04             	add    $0x4,%esp
 804a361:	39 f3                	cmp    %esi,%ebx
 804a363:	72 bb                	jb     804a320 <strcpy@plt+0x1950>
 804a365:	68 7a bf 04 08       	push   $0x804bf7a
 804a36a:	e8 81 e5 ff ff       	call   80488f0 <printf@plt>
 804a36f:	8d 65 98             	lea    -0x68(%ebp),%esp
 804a372:	5b                   	pop    %ebx
 804a373:	5e                   	pop    %esi
 804a374:	5f                   	pop    %edi
 804a375:	c9                   	leave
 804a376:	c3                   	ret
 804a377:	90                   	nop
 804a378:	55                   	push   %ebp
 804a379:	89 e5                	mov    %esp,%ebp
 804a37b:	68 e0 d7 04 08       	push   $0x804d7e0
 804a380:	68 89 bf 04 08       	push   $0x804bf89
 804a385:	68 9a bf 04 08       	push   $0x804bf9a
 804a38a:	68 ad bb 04 08       	push   $0x804bbad
 804a38f:	68 c0 bf 04 08       	push   $0x804bfc0
 804a394:	e8 57 e5 ff ff       	call   80488f0 <printf@plt>
 804a399:	6a 3f                	push   $0x3f
 804a39b:	68 60 c0 04 08       	push   $0x804c060
 804a3a0:	e8 4b e5 ff ff       	call   80488f0 <printf@plt>
 804a3a5:	68 a0 c0 04 08       	push   $0x804c0a0
 804a3aa:	e8 41 e5 ff ff       	call   80488f0 <printf@plt>
 804a3af:	83 c4 20             	add    $0x20,%esp
 804a3b2:	68 c0 c1 04 08       	push   $0x804c1c0
 804a3b7:	e8 34 e5 ff ff       	call   80488f0 <printf@plt>
 804a3bc:	68 e0 d7 04 08       	push   $0x804d7e0
 804a3c1:	68 e0 d7 04 08       	push   $0x804d7e0
 804a3c6:	68 e0 d7 04 08       	push   $0x804d7e0
 804a3cb:	6a 3f                	push   $0x3f
 804a3cd:	68 e0 d7 04 08       	push   $0x804d7e0
 804a3d2:	68 e0 d7 04 08       	push   $0x804d7e0
 804a3d7:	68 60 c3 04 08       	push   $0x804c360
 804a3dc:	e8 0f e5 ff ff       	call   80488f0 <printf@plt>
 804a3e1:	c9                   	leave
 804a3e2:	c3                   	ret
 804a3e3:	90                   	nop
 804a3e4:	55                   	push   %ebp
 804a3e5:	89 e5                	mov    %esp,%ebp
 804a3e7:	83 ec 04             	sub    $0x4,%esp
 804a3ea:	57                   	push   %edi
 804a3eb:	56                   	push   %esi
 804a3ec:	53                   	push   %ebx
 804a3ed:	8b 75 08             	mov    0x8(%ebp),%esi
 804a3f0:	c7 45 fc 00 00 00 00 	movl   $0x0,-0x4(%ebp)
 804a3f7:	89 f7                	mov    %esi,%edi
 804a3f9:	0f be 1e             	movsbl (%esi),%ebx
 804a3fc:	85 db                	test   %ebx,%ebx
 804a3fe:	74 35                	je     804a435 <strcpy@plt+0x1a65>
 804a400:	83 fb 27             	cmp    $0x27,%ebx
 804a403:	75 0b                	jne    804a410 <strcpy@plt+0x1a40>
 804a405:	80 75 fc 01          	xorb   $0x1,-0x4(%ebp)
 804a409:	eb 1f                	jmp    804a42a <strcpy@plt+0x1a5a>
 804a40b:	90                   	nop
 804a40c:	8d 74 26 00          	lea    0x0(%esi,%eiz,1),%esi
 804a410:	53                   	push   %ebx
 804a411:	e8 0a e4 ff ff       	call   8048820 <isgraph@plt>
 804a416:	83 c4 04             	add    $0x4,%esp
 804a419:	85 c0                	test   %eax,%eax
 804a41b:	75 06                	jne    804a423 <strcpy@plt+0x1a53>
 804a41d:	83 7d fc 00          	cmpl   $0x0,-0x4(%ebp)
 804a421:	74 12                	je     804a435 <strcpy@plt+0x1a65>
 804a423:	39 f7                	cmp    %esi,%edi
 804a425:	74 02                	je     804a429 <strcpy@plt+0x1a59>
 804a427:	88 1f                	mov    %bl,(%edi)
 804a429:	47                   	inc    %edi
 804a42a:	46                   	inc    %esi
 804a42b:	0f be 1e             	movsbl (%esi),%ebx
 804a42e:	85 db                	test   %ebx,%ebx
 804a430:	75 ce                	jne    804a400 <strcpy@plt+0x1a30>
 804a432:	eb 01                	jmp    804a435 <strcpy@plt+0x1a65>
 804a434:	46                   	inc    %esi
 804a435:	80 3e 00             	cmpb   $0x0,(%esi)
 804a438:	74 10                	je     804a44a <strcpy@plt+0x1a7a>
 804a43a:	0f be 06             	movsbl (%esi),%eax
 804a43d:	50                   	push   %eax
 804a43e:	e8 dd e3 ff ff       	call   8048820 <isgraph@plt>
 804a443:	83 c4 04             	add    $0x4,%esp
 804a446:	85 c0                	test   %eax,%eax
 804a448:	74 ea                	je     804a434 <strcpy@plt+0x1a64>
 804a44a:	c6 07 00             	movb   $0x0,(%edi)
 804a44d:	89 f0                	mov    %esi,%eax
 804a44f:	8d 65 f0             	lea    -0x10(%ebp),%esp
 804a452:	5b                   	pop    %ebx
 804a453:	5e                   	pop    %esi
 804a454:	5f                   	pop    %edi
 804a455:	c9                   	leave
 804a456:	c3                   	ret
 804a457:	90                   	nop
 804a458:	55                   	push   %ebp
 804a459:	89 e5                	mov    %esp,%ebp
 804a45b:	83 ec 10             	sub    $0x10,%esp
 804a45e:	57                   	push   %edi
 804a45f:	56                   	push   %esi
 804a460:	53                   	push   %ebx
 804a461:	8b 5d 08             	mov    0x8(%ebp),%ebx
 804a464:	eb 06                	jmp    804a46c <strcpy@plt+0x1a9c>
 804a466:	80 fa 20             	cmp    $0x20,%dl
 804a469:	7f 07                	jg     804a472 <strcpy@plt+0x1aa2>
 804a46b:	43                   	inc    %ebx
 804a46c:	8a 13                	mov    (%ebx),%dl
 804a46e:	84 d2                	test   %dl,%dl
 804a470:	75 f4                	jne    804a466 <strcpy@plt+0x1a96>
 804a472:	84 d2                	test   %dl,%dl
 804a474:	0f 84 9e 03 00 00    	je     804a818 <strcpy@plt+0x1e48>
 804a47a:	8d b6 00 00 00 00    	lea    0x0(%esi),%esi
 804a480:	53                   	push   %ebx
 804a481:	e8 5e ff ff ff       	call   804a3e4 <strcpy@plt+0x1a14>
 804a486:	89 45 fc             	mov    %eax,-0x4(%ebp)
 804a489:	83 c4 04             	add    $0x4,%esp
 804a48c:	80 3b 2d             	cmpb   $0x2d,(%ebx)
 804a48f:	0f 84 6d 03 00 00    	je     804a802 <strcpy@plt+0x1e32>
 804a495:	83 3d 44 d6 04 08 00 	cmpl   $0x0,0x804d644
 804a49c:	74 53                	je     804a4f1 <strcpy@plt+0x1b21>
 804a49e:	89 df                	mov    %ebx,%edi
 804a4a0:	31 c0                	xor    %eax,%eax
 804a4a2:	fc                   	cld
 804a4a3:	b9 ff ff ff ff       	mov    $0xffffffff,%ecx
 804a4a8:	f2 ae                	repnz scas %es:(%edi),%al
 804a4aa:	f7 d1                	not    %ecx
 804a4ac:	83 c1 07             	add    $0x7,%ecx
 804a4af:	51                   	push   %ecx
 804a4b0:	e8 73 e8 ff ff       	call   8048d28 <strcpy@plt+0x358>
 804a4b5:	89 c7                	mov    %eax,%edi
 804a4b7:	83 c4 04             	add    $0x4,%esp
 804a4ba:	53                   	push   %ebx
 804a4bb:	8d 47 04             	lea    0x4(%edi),%eax
 804a4be:	50                   	push   %eax
 804a4bf:	e8 0c e5 ff ff       	call   80489d0 <strcpy@plt>
 804a4c4:	83 c4 08             	add    $0x8,%esp
 804a4c7:	c7 07 00 00 00 00    	movl   $0x0,(%edi)
 804a4cd:	8b 15 cc d7 04 08    	mov    0x804d7cc,%edx
 804a4d3:	85 d2                	test   %edx,%edx
 804a4d5:	74 09                	je     804a4e0 <strcpy@plt+0x1b10>
 804a4d7:	89 3a                	mov    %edi,(%edx)
 804a4d9:	eb 0b                	jmp    804a4e6 <strcpy@plt+0x1b16>
 804a4db:	90                   	nop
 804a4dc:	8d 74 26 00          	lea    0x0(%esi,%eiz,1),%esi
 804a4e0:	89 3d c8 d7 04 08    	mov    %edi,0x804d7c8
 804a4e6:	89 3d cc d7 04 08    	mov    %edi,0x804d7cc
 804a4ec:	e9 1b 03 00 00       	jmp    804a80c <strcpy@plt+0x1e3c>
 804a4f1:	8b 15 14 d8 04 08    	mov    0x804d814,%edx
 804a4f7:	85 d2                	test   %edx,%edx
 804a4f9:	74 11                	je     804a50c <strcpy@plt+0x1b3c>
 804a4fb:	53                   	push   %ebx
 804a4fc:	52                   	push   %edx
 804a4fd:	68 20 c4 04 08       	push   $0x804c420
 804a502:	6a 02                	push   $0x2
 804a504:	e8 8b e7 ff ff       	call   8048c94 <strcpy@plt+0x2c4>
 804a509:	83 c4 10             	add    $0x10,%esp
 804a50c:	53                   	push   %ebx
 804a50d:	89 df                	mov    %ebx,%edi
 804a50f:	31 c0                	xor    %eax,%eax
 804a511:	fc                   	cld
 804a512:	b9 ff ff ff ff       	mov    $0xffffffff,%ecx
 804a517:	f2 ae                	repnz scas %es:(%edi),%al
 804a519:	f7 d1                	not    %ecx
 804a51b:	51                   	push   %ecx
 804a51c:	e8 07 e8 ff ff       	call   8048d28 <strcpy@plt+0x358>
 804a521:	83 c4 04             	add    $0x4,%esp
 804a524:	89 c2                	mov    %eax,%edx
 804a526:	52                   	push   %edx
 804a527:	e8 a4 e4 ff ff       	call   80489d0 <strcpy@plt>
 804a52c:	83 c4 08             	add    $0x8,%esp
 804a52f:	89 c2                	mov    %eax,%edx
 804a531:	89 15 14 d8 04 08    	mov    %edx,0x804d814
 804a537:	c7 05 44 d6 04 08 01 	movl   $0x1,0x804d644
 804a53e:	00 00 00 
 804a541:	e9 c6 02 00 00       	jmp    804a80c <strcpy@plt+0x1e3c>
 804a546:	83 3d 14 d8 04 08 00 	cmpl   $0x0,0x804d814
 804a54d:	0f 95 c0             	setne  %al
 804a550:	88 45 f0             	mov    %al,-0x10(%ebp)
 804a553:	83 e0 01             	and    $0x1,%eax
 804a556:	a3 44 d6 04 08       	mov    %eax,0x804d644
 804a55b:	c7 45 f8 00 00 00 00 	movl   $0x0,-0x8(%ebp)
 804a562:	8a 03                	mov    (%ebx),%al
 804a564:	0c 20                	or     $0x20,%al
 804a566:	04 9d                	add    $0x9d,%al
 804a568:	0f be d0             	movsbl %al,%edx
 804a56b:	83 fa 13             	cmp    $0x13,%edx
 804a56e:	77 07                	ja     804a577 <strcpy@plt+0x1ba7>
 804a570:	ff 24 95 2c c5 04 08 	jmp    *0x804c52c(,%edx,4)
 804a577:	53                   	push   %ebx
 804a578:	68 3f c4 04 08       	push   $0x804c43f
 804a57d:	eb 3b                	jmp    804a5ba <strcpy@plt+0x1bea>
 804a57f:	90                   	nop
 804a580:	8b 5d fc             	mov    -0x4(%ebp),%ebx
 804a583:	80 3b 00             	cmpb   $0x0,(%ebx)
 804a586:	75 0f                	jne    804a597 <strcpy@plt+0x1bc7>
 804a588:	68 60 c4 04 08       	push   $0x804c460
 804a58d:	6a 02                	push   $0x2
 804a58f:	e8 00 e7 ff ff       	call   8048c94 <strcpy@plt+0x2c4>
 804a594:	83 c4 08             	add    $0x8,%esp
 804a597:	53                   	push   %ebx
 804a598:	e8 47 fe ff ff       	call   804a3e4 <strcpy@plt+0x1a14>
 804a59d:	89 45 fc             	mov    %eax,-0x4(%ebp)
 804a5a0:	68 33 bc 04 08       	push   $0x804bc33
 804a5a5:	53                   	push   %ebx
 804a5a6:	e8 f5 e3 ff ff       	call   80489a0 <fopen@plt>
 804a5ab:	89 c6                	mov    %eax,%esi
 804a5ad:	83 c4 0c             	add    $0xc,%esp
 804a5b0:	85 f6                	test   %esi,%esi
 804a5b2:	75 1c                	jne    804a5d0 <strcpy@plt+0x1c00>
 804a5b4:	53                   	push   %ebx
 804a5b5:	68 db bc 04 08       	push   $0x804bcdb
 804a5ba:	6a 02                	push   $0x2
 804a5bc:	e8 d3 e6 ff ff       	call   8048c94 <strcpy@plt+0x2c4>
 804a5c1:	83 c4 0c             	add    $0xc,%esp
 804a5c4:	e9 13 02 00 00       	jmp    804a7dc <strcpy@plt+0x1e0c>
 804a5c9:	8d b4 26 00 00 00 00 	lea    0x0(%esi,%eiz,1),%esi
 804a5d0:	6a 02                	push   $0x2
 804a5d2:	6a 00                	push   $0x0
 804a5d4:	56                   	push   %esi
 804a5d5:	e8 d6 e2 ff ff       	call   80488b0 <fseek@plt>
 804a5da:	56                   	push   %esi
 804a5db:	e8 60 e2 ff ff       	call   8048840 <ftell@plt>
 804a5e0:	89 45 f4             	mov    %eax,-0xc(%ebp)
 804a5e3:	6a 00                	push   $0x0
 804a5e5:	6a 00                	push   $0x0
 804a5e7:	56                   	push   %esi
 804a5e8:	e8 c3 e2 ff ff       	call   80488b0 <fseek@plt>
 804a5ed:	8b 45 f4             	mov    -0xc(%ebp),%eax
 804a5f0:	40                   	inc    %eax
 804a5f1:	50                   	push   %eax
 804a5f2:	e8 31 e7 ff ff       	call   8048d28 <strcpy@plt+0x358>
 804a5f7:	89 c7                	mov    %eax,%edi
 804a5f9:	83 c4 20             	add    $0x20,%esp
 804a5fc:	56                   	push   %esi
 804a5fd:	6a 01                	push   $0x1
 804a5ff:	8b 45 f4             	mov    -0xc(%ebp),%eax
 804a602:	50                   	push   %eax
 804a603:	57                   	push   %edi
 804a604:	e8 67 e2 ff ff       	call   8048870 <fread@plt>
 804a609:	89 c2                	mov    %eax,%edx
 804a60b:	83 c4 10             	add    $0x10,%esp
 804a60e:	83 fa 01             	cmp    $0x1,%edx
 804a611:	74 12                	je     804a625 <strcpy@plt+0x1c55>
 804a613:	53                   	push   %ebx
 804a614:	68 98 bc 04 08       	push   $0x804bc98
 804a619:	6a 02                	push   $0x2
 804a61b:	e8 74 e6 ff ff       	call   8048c94 <strcpy@plt+0x2c4>
 804a620:	83 c4 0c             	add    $0xc,%esp
 804a623:	eb 15                	jmp    804a63a <strcpy@plt+0x1c6a>
 804a625:	8b 45 f4             	mov    -0xc(%ebp),%eax
 804a628:	c6 04 38 00          	movb   $0x0,(%eax,%edi,1)
 804a62c:	57                   	push   %edi
 804a62d:	e8 26 fe ff ff       	call   804a458 <strcpy@plt+0x1a88>
 804a632:	bb 86 c4 04 08       	mov    $0x804c486,%ebx
 804a637:	83 c4 04             	add    $0x4,%esp
 804a63a:	56                   	push   %esi
 804a63b:	e8 d0 e2 ff ff       	call   8048910 <fclose@plt>
 804a640:	83 c4 04             	add    $0x4,%esp
 804a643:	e9 94 01 00 00       	jmp    804a7dc <strcpy@plt+0x1e0c>
 804a648:	8b 45 fc             	mov    -0x4(%ebp),%eax
 804a64b:	a3 20 d8 04 08       	mov    %eax,0x804d820
 804a650:	80 38 00             	cmpb   $0x0,(%eax)
 804a653:	75 0f                	jne    804a664 <strcpy@plt+0x1c94>
 804a655:	68 a0 c4 04 08       	push   $0x804c4a0
 804a65a:	6a 02                	push   $0x2
 804a65c:	e8 33 e6 ff ff       	call   8048c94 <strcpy@plt+0x2c4>
 804a661:	83 c4 08             	add    $0x8,%esp
 804a664:	ff 35 20 d8 04 08    	push   0x804d820
 804a66a:	e8 75 fd ff ff       	call   804a3e4 <strcpy@plt+0x1a14>
 804a66f:	89 45 fc             	mov    %eax,-0x4(%ebp)
 804a672:	83 c4 04             	add    $0x4,%esp
 804a675:	e9 62 01 00 00       	jmp    804a7dc <strcpy@plt+0x1e0c>
 804a67a:	8d b6 00 00 00 00    	lea    0x0(%esi),%esi
 804a680:	c7 05 38 d8 04 08 01 	movl   $0x1,0x804d838
 804a687:	00 00 00 
 804a68a:	e9 4d 01 00 00       	jmp    804a7dc <strcpy@plt+0x1e0c>
 804a68f:	90                   	nop
 804a690:	53                   	push   %ebx
 804a691:	68 ca c4 04 08       	push   $0x804c4ca
 804a696:	e8 45 e4 ff ff       	call   8048ae0 <strcpy@plt+0x110>
 804a69b:	83 c4 08             	add    $0x8,%esp
 804a69e:	85 c0                	test   %eax,%eax
 804a6a0:	74 12                	je     804a6b4 <strcpy@plt+0x1ce4>
 804a6a2:	53                   	push   %ebx
 804a6a3:	68 d0 c4 04 08       	push   $0x804c4d0
 804a6a8:	e8 33 e4 ff ff       	call   8048ae0 <strcpy@plt+0x110>
 804a6ad:	83 c4 08             	add    $0x8,%esp
 804a6b0:	85 c0                	test   %eax,%eax
 804a6b2:	75 05                	jne    804a6b9 <strcpy@plt+0x1ce9>
 804a6b4:	bb 86 c4 04 08       	mov    $0x804c486,%ebx
 804a6b9:	c7 05 44 d6 04 08 01 	movl   $0x1,0x804d644
 804a6c0:	00 00 00 
 804a6c3:	e9 14 01 00 00       	jmp    804a7dc <strcpy@plt+0x1e0c>
 804a6c8:	e8 ab fc ff ff       	call   804a378 <strcpy@plt+0x19a8>
 804a6cd:	6a 00                	push   $0x0
 804a6cf:	e8 8c e2 ff ff       	call   8048960 <exit@plt>
 804a6d4:	53                   	push   %ebx
 804a6d5:	68 d6 c4 04 08       	push   $0x804c4d6
 804a6da:	e8 01 e4 ff ff       	call   8048ae0 <strcpy@plt+0x110>
 804a6df:	83 c4 08             	add    $0x8,%esp
 804a6e2:	85 c0                	test   %eax,%eax
 804a6e4:	75 1a                	jne    804a700 <strcpy@plt+0x1d30>
 804a6e6:	c7 05 44 d6 04 08 00 	movl   $0x0,0x804d644
 804a6ed:	00 00 00 
 804a6f0:	bb 86 c4 04 08       	mov    $0x804c486,%ebx
 804a6f5:	e9 e2 00 00 00       	jmp    804a7dc <strcpy@plt+0x1e0c>
 804a6fa:	8d b6 00 00 00 00    	lea    0x0(%esi),%esi
 804a700:	c7 05 2c d8 04 08 01 	movl   $0x1,0x804d82c
 804a707:	00 00 00 
 804a70a:	e9 cd 00 00 00       	jmp    804a7dc <strcpy@plt+0x1e0c>
 804a70f:	90                   	nop
 804a710:	c7 05 28 d8 04 08 00 	movl   $0x0,0x804d828
 804a717:	00 00 00 
 804a71a:	e9 bd 00 00 00       	jmp    804a7dc <strcpy@plt+0x1e0c>
 804a71f:	90                   	nop
 804a720:	53                   	push   %ebx
 804a721:	68 db c4 04 08       	push   $0x804c4db
 804a726:	e8 b5 e3 ff ff       	call   8048ae0 <strcpy@plt+0x110>
 804a72b:	83 c4 08             	add    $0x8,%esp
 804a72e:	85 c0                	test   %eax,%eax
 804a730:	75 05                	jne    804a737 <strcpy@plt+0x1d67>
 804a732:	bb 86 c4 04 08       	mov    $0x804c486,%ebx
 804a737:	c7 05 28 d8 04 08 01 	movl   $0x1,0x804d828
 804a73e:	00 00 00 
 804a741:	e9 96 00 00 00       	jmp    804a7dc <strcpy@plt+0x1e0c>
 804a746:	53                   	push   %ebx
 804a747:	68 df c4 04 08       	push   $0x804c4df
 804a74c:	e8 8f e3 ff ff       	call   8048ae0 <strcpy@plt+0x110>
 804a751:	83 c4 08             	add    $0x8,%esp
 804a754:	85 c0                	test   %eax,%eax
 804a756:	75 05                	jne    804a75d <strcpy@plt+0x1d8d>
 804a758:	bb 86 c4 04 08       	mov    $0x804c486,%ebx
 804a75d:	c7 05 30 d8 04 08 01 	movl   $0x1,0x804d830
 804a764:	00 00 00 
 804a767:	eb 73                	jmp    804a7dc <strcpy@plt+0x1e0c>
 804a769:	8d b4 26 00 00 00 00 	lea    0x0(%esi,%eiz,1),%esi
 804a770:	53                   	push   %ebx
 804a771:	68 e3 c4 04 08       	push   $0x804c4e3
 804a776:	e8 65 e3 ff ff       	call   8048ae0 <strcpy@plt+0x110>
 804a77b:	83 c4 08             	add    $0x8,%esp
 804a77e:	85 c0                	test   %eax,%eax
 804a780:	75 05                	jne    804a787 <strcpy@plt+0x1db7>
 804a782:	bb 86 c4 04 08       	mov    $0x804c486,%ebx
 804a787:	c7 45 f8 01 00 00 00 	movl   $0x1,-0x8(%ebp)
 804a78e:	53                   	push   %ebx
 804a78f:	68 e8 c4 04 08       	push   $0x804c4e8
 804a794:	e8 47 e3 ff ff       	call   8048ae0 <strcpy@plt+0x110>
 804a799:	83 c4 08             	add    $0x8,%esp
 804a79c:	85 c0                	test   %eax,%eax
 804a79e:	75 05                	jne    804a7a5 <strcpy@plt+0x1dd5>
 804a7a0:	bb 86 c4 04 08       	mov    $0x804c486,%ebx
 804a7a5:	ff 45 f8             	incl   -0x8(%ebp)
 804a7a8:	53                   	push   %ebx
 804a7a9:	68 ef c4 04 08       	push   $0x804c4ef
 804a7ae:	e8 2d e3 ff ff       	call   8048ae0 <strcpy@plt+0x110>
 804a7b3:	83 c4 08             	add    $0x8,%esp
 804a7b6:	85 c0                	test   %eax,%eax
 804a7b8:	75 05                	jne    804a7bf <strcpy@plt+0x1def>
 804a7ba:	bb 86 c4 04 08       	mov    $0x804c486,%ebx
 804a7bf:	ff 45 f8             	incl   -0x8(%ebp)
 804a7c2:	53                   	push   %ebx
 804a7c3:	68 f3 c4 04 08       	push   $0x804c4f3
 804a7c8:	e8 13 e3 ff ff       	call   8048ae0 <strcpy@plt+0x110>
 804a7cd:	83 c4 08             	add    $0x8,%esp
 804a7d0:	85 c0                	test   %eax,%eax
 804a7d2:	75 05                	jne    804a7d9 <strcpy@plt+0x1e09>
 804a7d4:	bb 86 c4 04 08       	mov    $0x804c486,%ebx
 804a7d9:	ff 45 f8             	incl   -0x8(%ebp)
 804a7dc:	83 7d f8 00          	cmpl   $0x0,-0x8(%ebp)
 804a7e0:	7e 20                	jle    804a802 <strcpy@plt+0x1e32>
 804a7e2:	83 3d 34 d8 04 08 00 	cmpl   $0x0,0x804d834
 804a7e9:	74 0f                	je     804a7fa <strcpy@plt+0x1e2a>
 804a7eb:	68 00 c5 04 08       	push   $0x804c500
 804a7f0:	6a 02                	push   $0x2
 804a7f2:	e8 9d e4 ff ff       	call   8048c94 <strcpy@plt+0x2c4>
 804a7f7:	83 c4 08             	add    $0x8,%esp
 804a7fa:	8b 45 f8             	mov    -0x8(%ebp),%eax
 804a7fd:	a3 34 d8 04 08       	mov    %eax,0x804d834
 804a802:	43                   	inc    %ebx
 804a803:	80 3b 00             	cmpb   $0x0,(%ebx)
 804a806:	0f 85 3a fd ff ff    	jne    804a546 <strcpy@plt+0x1b76>
 804a80c:	8b 5d fc             	mov    -0x4(%ebp),%ebx
 804a80f:	80 3b 00             	cmpb   $0x0,(%ebx)
 804a812:	0f 85 68 fc ff ff    	jne    804a480 <strcpy@plt+0x1ab0>
 804a818:	8d 65 e4             	lea    -0x1c(%ebp),%esp
 804a81b:	5b                   	pop    %ebx
 804a81c:	5e                   	pop    %esi
 804a81d:	5f                   	pop    %edi
 804a81e:	c9                   	leave
 804a81f:	c3                   	ret
 804a820:	55                   	push   %ebp
 804a821:	89 e5                	mov    %esp,%ebp
 804a823:	53                   	push   %ebx
 804a824:	8b 4d 08             	mov    0x8(%ebp),%ecx
 804a827:	8b 45 0c             	mov    0xc(%ebp),%eax
 804a82a:	8b 18                	mov    (%eax),%ebx
 804a82c:	c1 e3 10             	shl    $0x10,%ebx
 804a82f:	89 1d c4 d7 04 08    	mov    %ebx,0x804d7c4
 804a835:	0f b6 50 04          	movzbl 0x4(%eax),%edx
 804a839:	c1 e2 10             	shl    $0x10,%edx
 804a83c:	0f b7 40 02          	movzwl 0x2(%eax),%eax
 804a840:	09 c2                	or     %eax,%edx
 804a842:	89 15 c0 d7 04 08    	mov    %edx,0x804d7c0
 804a848:	eb 0b                	jmp    804a855 <strcpy@plt+0x1e85>
 804a84a:	8d b6 00 00 00 00    	lea    0x0(%esi),%esi
 804a850:	3c 20                	cmp    $0x20,%al
 804a852:	7f 07                	jg     804a85b <strcpy@plt+0x1e8b>
 804a854:	41                   	inc    %ecx
 804a855:	8a 01                	mov    (%ecx),%al
 804a857:	84 c0                	test   %al,%al
 804a859:	75 f5                	jne    804a850 <strcpy@plt+0x1e80>
 804a85b:	51                   	push   %ecx
 804a85c:	e8 f7 fb ff ff       	call   804a458 <strcpy@plt+0x1a88>
 804a861:	83 c4 04             	add    $0x4,%esp
 804a864:	83 3d 14 d8 04 08 00 	cmpl   $0x0,0x804d814
 804a86b:	75 0f                	jne    804a87c <strcpy@plt+0x1eac>
 804a86d:	68 7c c5 04 08       	push   $0x804c57c
 804a872:	6a 02                	push   $0x2
 804a874:	e8 1b e4 ff ff       	call   8048c94 <strcpy@plt+0x2c4>
 804a879:	83 c4 08             	add    $0x8,%esp
 804a87c:	83 3d 28 d8 04 08 00 	cmpl   $0x0,0x804d828
 804a883:	75 2a                	jne    804a8af <strcpy@plt+0x1edf>
 804a885:	83 3d 2c d8 04 08 00 	cmpl   $0x0,0x804d82c
 804a88c:	75 21                	jne    804a8af <strcpy@plt+0x1edf>
 804a88e:	83 3d 34 d8 04 08 00 	cmpl   $0x0,0x804d834
 804a895:	75 18                	jne    804a8af <strcpy@plt+0x1edf>
 804a897:	83 3d 30 d8 04 08 00 	cmpl   $0x0,0x804d830
 804a89e:	75 0f                	jne    804a8af <strcpy@plt+0x1edf>
 804a8a0:	68 a0 c5 04 08       	push   $0x804c5a0
 804a8a5:	6a 02                	push   $0x2
 804a8a7:	e8 e8 e3 ff ff       	call   8048c94 <strcpy@plt+0x2c4>
 804a8ac:	83 c4 08             	add    $0x8,%esp
 804a8af:	83 3d 34 d8 04 08 01 	cmpl   $0x1,0x804d834
 804a8b6:	76 18                	jbe    804a8d0 <strcpy@plt+0x1f00>
 804a8b8:	83 3d c8 d7 04 08 00 	cmpl   $0x0,0x804d7c8
 804a8bf:	75 18                	jne    804a8d9 <strcpy@plt+0x1f09>
 804a8c1:	68 e0 c5 04 08       	push   $0x804c5e0
 804a8c6:	6a 02                	push   $0x2
 804a8c8:	e8 c7 e3 ff ff       	call   8048c94 <strcpy@plt+0x2c4>
 804a8cd:	83 c4 08             	add    $0x8,%esp
 804a8d0:	83 3d c8 d7 04 08 00 	cmpl   $0x0,0x804d7c8
 804a8d7:	74 18                	je     804a8f1 <strcpy@plt+0x1f21>
 804a8d9:	83 3d 34 d8 04 08 00 	cmpl   $0x0,0x804d834
 804a8e0:	75 0f                	jne    804a8f1 <strcpy@plt+0x1f21>
 804a8e2:	68 02 c6 04 08       	push   $0x804c602
 804a8e7:	6a 02                	push   $0x2
 804a8e9:	e8 a6 e3 ff ff       	call   8048c94 <strcpy@plt+0x2c4>
 804a8ee:	83 c4 08             	add    $0x8,%esp
 804a8f1:	ff 35 14 d8 04 08    	push   0x804d814
 804a8f7:	e8 78 e4 ff ff       	call   8048d74 <strcpy@plt+0x3a4>
 804a8fc:	a1 34 d8 04 08       	mov    0x804d834,%eax
 804a901:	83 c4 04             	add    $0x4,%esp
 804a904:	83 f8 01             	cmp    $0x1,%eax
 804a907:	74 0a                	je     804a913 <strcpy@plt+0x1f43>
 804a909:	e8 6e e4 ff ff       	call   8048d7c <strcpy@plt+0x3ac>
 804a90e:	a1 34 d8 04 08       	mov    0x804d834,%eax
 804a913:	83 c0 fe             	add    $0xfffffffe,%eax
 804a916:	83 f8 01             	cmp    $0x1,%eax
 804a919:	77 25                	ja     804a940 <strcpy@plt+0x1f70>
 804a91b:	e8 74 ea ff ff       	call   8049394 <strcpy@plt+0x9c4>
 804a920:	83 3d 34 d8 04 08 02 	cmpl   $0x2,0x804d834
 804a927:	75 1c                	jne    804a945 <strcpy@plt+0x1f75>
 804a929:	e8 de ee ff ff       	call   804980c <strcpy@plt+0xe3c>
 804a92e:	c7 05 34 d8 04 08 00 	movl   $0x0,0x804d834
 804a935:	00 00 00 
 804a938:	eb 0b                	jmp    804a945 <strcpy@plt+0x1f75>
 804a93a:	8d b6 00 00 00 00    	lea    0x0(%esi),%esi
 804a940:	e8 1b ec ff ff       	call   8049560 <strcpy@plt+0xb90>
 804a945:	e8 ce ed ff ff       	call   8049718 <strcpy@plt+0xd48>
 804a94a:	8b 15 24 d8 04 08    	mov    0x804d824,%edx
 804a950:	85 d2                	test   %edx,%edx
 804a952:	74 06                	je     804a95a <strcpy@plt+0x1f8a>
 804a954:	89 15 28 d8 04 08    	mov    %edx,0x804d828
 804a95a:	a1 34 d8 04 08       	mov    0x804d834,%eax
 804a95f:	83 f8 01             	cmp    $0x1,%eax
 804a962:	74 12                	je     804a976 <strcpy@plt+0x1fa6>
 804a964:	83 f8 03             	cmp    $0x3,%eax
 804a967:	74 0d                	je     804a976 <strcpy@plt+0x1fa6>
 804a969:	83 f8 04             	cmp    $0x4,%eax
 804a96c:	74 08                	je     804a976 <strcpy@plt+0x1fa6>
 804a96e:	39 15 28 d8 04 08    	cmp    %edx,0x804d828
 804a974:	74 05                	je     804a97b <strcpy@plt+0x1fab>
 804a976:	e8 cd ef ff ff       	call   8049948 <strcpy@plt+0xf78>
 804a97b:	e8 f0 f7 ff ff       	call   804a170 <strcpy@plt+0x17a0>
 804a980:	8b 5d fc             	mov    -0x4(%ebp),%ebx
 804a983:	c9                   	leave
 804a984:	c3                   	ret
 804a985:	8d 76 00             	lea    0x0(%esi),%esi
 804a988:	55                   	push   %ebp
 804a989:	89 e5                	mov    %esp,%ebp
 804a98b:	83 ec 18             	sub    $0x18,%esp
 804a98e:	57                   	push   %edi
 804a98f:	56                   	push   %esi
 804a990:	53                   	push   %ebx
 804a991:	8b 5d 08             	mov    0x8(%ebp),%ebx
 804a994:	6a 20                	push   $0x20
 804a996:	68 e0 d7 04 08       	push   $0x804d7e0
 804a99b:	8b 45 0c             	mov    0xc(%ebp),%eax
 804a99e:	ff 30                	push   (%eax)
 804a9a0:	e8 4b 0e 00 00       	call   804b7f0 <strcpy@plt+0x2e20>
 804a9a5:	c7 05 cc d7 04 08 00 	movl   $0x0,0x804d7cc
 804a9ac:	00 00 00 
 804a9af:	c7 05 c8 d7 04 08 00 	movl   $0x0,0x804d7c8
 804a9b6:	00 00 00 
 804a9b9:	c7 05 d4 d7 04 08 00 	movl   $0x0,0x804d7d4
 804a9c0:	00 00 00 
 804a9c3:	c7 05 d0 d7 04 08 00 	movl   $0x0,0x804d7d0
 804a9ca:	00 00 00 
 804a9cd:	83 c4 0c             	add    $0xc,%esp
 804a9d0:	bf 80 d8 04 08       	mov    $0x804d880,%edi
 804a9d5:	31 d2                	xor    %edx,%edx
 804a9d7:	89 d0                	mov    %edx,%eax
 804a9d9:	fc                   	cld
 804a9da:	b9 00 04 00 00       	mov    $0x400,%ecx
 804a9df:	f3 ab                	rep stos %eax,%es:(%edi)
 804a9e1:	c7 05 44 d8 04 08 00 	movl   $0x0,0x804d844
 804a9e8:	00 00 00 
 804a9eb:	c7 05 40 d8 04 08 00 	movl   $0x0,0x804d840
 804a9f2:	00 00 00 
 804a9f5:	c7 05 3c d8 04 08 00 	movl   $0x0,0x804d83c
 804a9fc:	00 00 00 
 804a9ff:	c7 05 60 d8 04 08 00 	movl   $0x0,0x804d860
 804aa06:	00 00 00 
 804aa09:	c7 05 5c d8 04 08 00 	movl   $0x0,0x804d85c
 804aa10:	00 00 00 
 804aa13:	c7 05 58 d8 04 08 00 	movl   $0x0,0x804d858
 804aa1a:	00 00 00 
 804aa1d:	c7 05 54 d8 04 08 00 	movl   $0x0,0x804d854
 804aa24:	00 00 00 
 804aa27:	c7 05 50 d8 04 08 00 	movl   $0x0,0x804d850
 804aa2e:	00 00 00 
 804aa31:	c7 05 10 d8 04 08 00 	movl   $0x0,0x804d810
 804aa38:	00 00 00 
 804aa3b:	c7 05 1c d8 04 08 00 	movl   $0x0,0x804d81c
 804aa42:	00 00 00 
 804aa45:	c7 05 18 d8 04 08 00 	movl   $0x0,0x804d818
 804aa4c:	00 00 00 
 804aa4f:	c7 05 00 d8 04 08 00 	movl   $0x0,0x804d800
 804aa56:	00 00 00 
 804aa59:	c7 05 04 d8 04 08 00 	movl   $0x0,0x804d804
 804aa60:	00 00 00 
 804aa63:	c7 05 0c d8 04 08 00 	movl   $0x0,0x804d80c
 804aa6a:	00 00 00 
 804aa6d:	c7 05 08 d8 04 08 00 	movl   $0x0,0x804d808
 804aa74:	00 00 00 
 804aa77:	c7 05 48 d8 04 08 00 	movl   $0x0,0x804d848
 804aa7e:	00 00 00 
 804aa81:	c7 05 30 d8 04 08 00 	movl   $0x0,0x804d830
 804aa88:	00 00 00 
 804aa8b:	c7 05 2c d8 04 08 00 	movl   $0x0,0x804d82c
 804aa92:	00 00 00 
 804aa95:	c7 05 24 d8 04 08 00 	movl   $0x0,0x804d824
 804aa9c:	00 00 00 
 804aa9f:	c7 05 34 d8 04 08 00 	movl   $0x0,0x804d834
 804aaa6:	00 00 00 
 804aaa9:	c7 05 38 d8 04 08 00 	movl   $0x0,0x804d838
 804aab0:	00 00 00 
 804aab3:	c7 05 14 d8 04 08 00 	movl   $0x0,0x804d814
 804aaba:	00 00 00 
 804aabd:	c7 05 20 d8 04 08 00 	movl   $0x0,0x804d820
 804aac4:	00 00 00 
 804aac7:	c7 05 28 d8 04 08 01 	movl   $0x1,0x804d828
 804aace:	00 00 00 
 804aad1:	83 fb 01             	cmp    $0x1,%ebx
 804aad4:	7f 0c                	jg     804aae2 <strcpy@plt+0x2112>
 804aad6:	e8 9d f8 ff ff       	call   804a378 <strcpy@plt+0x19a8>
 804aadb:	6a 01                	push   $0x1
 804aadd:	e8 7e de ff ff       	call   8048960 <exit@plt>
 804aae2:	8b 75 0c             	mov    0xc(%ebp),%esi
 804aae5:	83 c6 04             	add    $0x4,%esi
 804aae8:	89 75 f0             	mov    %esi,-0x10(%ebp)
 804aaeb:	31 d2                	xor    %edx,%edx
 804aaed:	8b 45 0c             	mov    0xc(%ebp),%eax
 804aaf0:	83 78 04 00          	cmpl   $0x0,0x4(%eax)
 804aaf4:	74 1a                	je     804ab10 <strcpy@plt+0x2140>
 804aaf6:	8b 3e                	mov    (%esi),%edi
 804aaf8:	31 c0                	xor    %eax,%eax
 804aafa:	fc                   	cld
 804aafb:	b9 ff ff ff ff       	mov    $0xffffffff,%ecx
 804ab00:	f2 ae                	repnz scas %es:(%edi),%al
 804ab02:	f7 d1                	not    %ecx
 804ab04:	8d 54 0a 02          	lea    0x2(%edx,%ecx,1),%edx
 804ab08:	83 c6 04             	add    $0x4,%esi
 804ab0b:	83 3e 00             	cmpl   $0x0,(%esi)
 804ab0e:	75 e6                	jne    804aaf6 <strcpy@plt+0x2126>
 804ab10:	42                   	inc    %edx
 804ab11:	52                   	push   %edx
 804ab12:	e8 11 e2 ff ff       	call   8048d28 <strcpy@plt+0x358>
 804ab17:	89 45 f4             	mov    %eax,-0xc(%ebp)
 804ab1a:	89 c3                	mov    %eax,%ebx
 804ab1c:	8b 75 f0             	mov    -0x10(%ebp),%esi
 804ab1f:	83 c4 04             	add    $0x4,%esp
 804ab22:	8b 4d 0c             	mov    0xc(%ebp),%ecx
 804ab25:	83 79 04 00          	cmpl   $0x0,0x4(%ecx)
 804ab29:	74 36                	je     804ab61 <strcpy@plt+0x2191>
 804ab2b:	90                   	nop
 804ab2c:	8d 74 26 00          	lea    0x0(%esi,%eiz,1),%esi
 804ab30:	c6 03 27             	movb   $0x27,(%ebx)
 804ab33:	43                   	inc    %ebx
 804ab34:	ff 36                	push   (%esi)
 804ab36:	53                   	push   %ebx
 804ab37:	e8 94 de ff ff       	call   80489d0 <strcpy@plt>
 804ab3c:	83 c4 08             	add    $0x8,%esp
 804ab3f:	89 df                	mov    %ebx,%edi
 804ab41:	31 c0                	xor    %eax,%eax
 804ab43:	fc                   	cld
 804ab44:	b9 ff ff ff ff       	mov    $0xffffffff,%ecx
 804ab49:	f2 ae                	repnz scas %es:(%edi),%al
 804ab4b:	f7 d1                	not    %ecx
 804ab4d:	8d 5c 0b ff          	lea    -0x1(%ebx,%ecx,1),%ebx
 804ab51:	c6 03 27             	movb   $0x27,(%ebx)
 804ab54:	43                   	inc    %ebx
 804ab55:	c6 03 20             	movb   $0x20,(%ebx)
 804ab58:	43                   	inc    %ebx
 804ab59:	83 c6 04             	add    $0x4,%esi
 804ab5c:	83 3e 00             	cmpl   $0x0,(%esi)
 804ab5f:	75 cf                	jne    804ab30 <strcpy@plt+0x2160>
 804ab61:	c6 43 ff 00          	movb   $0x0,-0x1(%ebx)
 804ab65:	6a 00                	push   $0x0
 804ab67:	e8 54 dd ff ff       	call   80488c0 <time@plt>
 804ab6c:	89 c6                	mov    %eax,%esi
 804ab6e:	c7 45 f8 00 00 00 00 	movl   $0x0,-0x8(%ebp)
 804ab75:	8d 55 f8             	lea    -0x8(%ebp),%edx
 804ab78:	c7 42 04 00 00 00 00 	movl   $0x0,0x4(%edx)
 804ab7f:	c7 45 e8 00 00 00 00 	movl   $0x0,-0x18(%ebp)
 804ab86:	83 c4 04             	add    $0x4,%esp
 804ab89:	8b 7d f8             	mov    -0x8(%ebp),%edi
 804ab8c:	89 d3                	mov    %edx,%ebx
 804ab8e:	89 f6                	mov    %esi,%esi
 804ab90:	8d 04 37             	lea    (%edi,%esi,1),%eax
 804ab93:	89 45 f8             	mov    %eax,-0x8(%ebp)
 804ab96:	89 c7                	mov    %eax,%edi
 804ab98:	39 f7                	cmp    %esi,%edi
 804ab9a:	73 06                	jae    804aba2 <strcpy@plt+0x21d2>
 804ab9c:	ff 43 04             	incl   0x4(%ebx)
 804ab9f:	8b 7d f8             	mov    -0x8(%ebp),%edi
 804aba2:	ff 45 e8             	incl   -0x18(%ebp)
 804aba5:	83 7d e8 63          	cmpl   $0x63,-0x18(%ebp)
 804aba9:	7e e5                	jle    804ab90 <strcpy@plt+0x21c0>
 804abab:	8d 87 00 6a 99 6e    	lea    0x6e996a00(%edi),%eax
 804abb1:	89 45 f8             	mov    %eax,-0x8(%ebp)
 804abb4:	3d ff 69 99 6e       	cmp    $0x6e9969ff,%eax
 804abb9:	77 03                	ja     804abbe <strcpy@plt+0x21ee>
 804abbb:	ff 42 04             	incl   0x4(%edx)
 804abbe:	83 42 04 33          	addl   $0x33,0x4(%edx)
 804abc2:	52                   	push   %edx
 804abc3:	8b 4d f4             	mov    -0xc(%ebp),%ecx
 804abc6:	51                   	push   %ecx
 804abc7:	e8 54 fc ff ff       	call   804a820 <strcpy@plt+0x1e50>
 804abcc:	31 c0                	xor    %eax,%eax
 804abce:	8d 65 dc             	lea    -0x24(%ebp),%esp
 804abd1:	5b                   	pop    %ebx
 804abd2:	5e                   	pop    %esi
 804abd3:	5f                   	pop    %edi
 804abd4:	c9                   	leave
 804abd5:	c3                   	ret
 804abd6:	90                   	nop
 804abd7:	90                   	nop
 804abd8:	90                   	nop
 804abd9:	90                   	nop
 804abda:	90                   	nop
 804abdb:	90                   	nop
 804abdc:	90                   	nop
 804abdd:	90                   	nop
 804abde:	90                   	nop
 804abdf:	90                   	nop
 804abe0:	55                   	push   %ebp
 804abe1:	89 e5                	mov    %esp,%ebp
 804abe3:	53                   	push   %ebx
 804abe4:	e8 00 00 00 00       	call   804abe9 <strcpy@plt+0x2219>
 804abe9:	5b                   	pop    %ebx
 804abea:	81 c3 77 2a 00 00    	add    $0x2a77,%ebx
 804abf0:	8b 45 08             	mov    0x8(%ebp),%eax
 804abf3:	89 83 e8 ff ff ff    	mov    %eax,-0x18(%ebx)
 804abf9:	8b 5d fc             	mov    -0x4(%ebp),%ebx
 804abfc:	c9                   	leave
 804abfd:	c3                   	ret
 804abfe:	89 f6                	mov    %esi,%esi
 804ac00:	55                   	push   %ebp
 804ac01:	89 e5                	mov    %esp,%ebp
 804ac03:	53                   	push   %ebx
 804ac04:	e8 00 00 00 00       	call   804ac09 <strcpy@plt+0x2239>
 804ac09:	5b                   	pop    %ebx
 804ac0a:	81 c3 57 2a 00 00    	add    $0x2a57,%ebx
 804ac10:	8b 83 e8 ff ff ff    	mov    -0x18(%ebx),%eax
 804ac16:	8b 5d fc             	mov    -0x4(%ebp),%ebx
 804ac19:	c9                   	leave
 804ac1a:	c3                   	ret
 804ac1b:	90                   	nop
 804ac1c:	55                   	push   %ebp
 804ac1d:	89 e5                	mov    %esp,%ebp
 804ac1f:	53                   	push   %ebx
 804ac20:	e8 00 00 00 00       	call   804ac25 <strcpy@plt+0x2255>
 804ac25:	5b                   	pop    %ebx
 804ac26:	81 c3 3b 2a 00 00    	add    $0x2a3b,%ebx
 804ac2c:	8b 55 08             	mov    0x8(%ebp),%edx
 804ac2f:	83 bb e8 ff ff ff 00 	cmpl   $0x0,-0x18(%ebx)
 804ac36:	74 14                	je     804ac4c <strcpy@plt+0x227c>
 804ac38:	89 d0                	mov    %edx,%eax
 804ac3a:	c1 c0 10             	rol    $0x10,%eax
 804ac3d:	31 d0                	xor    %edx,%eax
 804ac3f:	25 ff ff 00 ff       	and    $0xff00ffff,%eax
 804ac44:	c1 c2 18             	rol    $0x18,%edx
 804ac47:	c1 e8 08             	shr    $0x8,%eax
 804ac4a:	31 c2                	xor    %eax,%edx
 804ac4c:	89 d0                	mov    %edx,%eax
 804ac4e:	8b 5d fc             	mov    -0x4(%ebp),%ebx
 804ac51:	c9                   	leave
 804ac52:	c3                   	ret
 804ac53:	90                   	nop
 804ac54:	55                   	push   %ebp
 804ac55:	89 e5                	mov    %esp,%ebp
 804ac57:	53                   	push   %ebx
 804ac58:	e8 00 00 00 00       	call   804ac5d <strcpy@plt+0x228d>
 804ac5d:	5b                   	pop    %ebx
 804ac5e:	81 c3 03 2a 00 00    	add    $0x2a03,%ebx
 804ac64:	8b 45 08             	mov    0x8(%ebp),%eax
 804ac67:	83 bb e8 ff ff ff 00 	cmpl   $0x0,-0x18(%ebx)
 804ac6e:	74 12                	je     804ac82 <strcpy@plt+0x22b2>
 804ac70:	89 c2                	mov    %eax,%edx
 804ac72:	c1 fa 08             	sar    $0x8,%edx
 804ac75:	0f b6 d2             	movzbl %dl,%edx
 804ac78:	c1 e0 08             	shl    $0x8,%eax
 804ac7b:	25 00 ff 00 00       	and    $0xff00,%eax
 804ac80:	09 d0                	or     %edx,%eax
 804ac82:	8b 5d fc             	mov    -0x4(%ebp),%ebx
 804ac85:	c9                   	leave
 804ac86:	c3                   	ret
 804ac87:	90                   	nop
 804ac88:	55                   	push   %ebp
 804ac89:	89 e5                	mov    %esp,%ebp
 804ac8b:	57                   	push   %edi
 804ac8c:	56                   	push   %esi
 804ac8d:	53                   	push   %ebx
 804ac8e:	e8 00 00 00 00       	call   804ac93 <strcpy@plt+0x22c3>
 804ac93:	5b                   	pop    %ebx
 804ac94:	81 c3 cd 29 00 00    	add    $0x29cd,%ebx
 804ac9a:	8b 7d 0c             	mov    0xc(%ebp),%edi
 804ac9d:	8b 75 10             	mov    0x10(%ebp),%esi
 804aca0:	c1 ee 02             	shr    $0x2,%esi
 804aca3:	85 f6                	test   %esi,%esi
 804aca5:	7e 1d                	jle    804acc4 <strcpy@plt+0x22f4>
 804aca7:	ff 37                	push   (%edi)
 804aca9:	83 c7 04             	add    $0x4,%edi
 804acac:	e8 6b ff ff ff       	call   804ac1c <strcpy@plt+0x224c>
 804acb1:	8b 55 08             	mov    0x8(%ebp),%edx
 804acb4:	89 02                	mov    %eax,(%edx)
 804acb6:	83 c2 04             	add    $0x4,%edx
 804acb9:	89 55 08             	mov    %edx,0x8(%ebp)
 804acbc:	83 c4 04             	add    $0x4,%esp
 804acbf:	4e                   	dec    %esi
 804acc0:	85 f6                	test   %esi,%esi
 804acc2:	7f e3                	jg     804aca7 <strcpy@plt+0x22d7>
 804acc4:	8d 65 f4             	lea    -0xc(%ebp),%esp
 804acc7:	5b                   	pop    %ebx
 804acc8:	5e                   	pop    %esi
 804acc9:	5f                   	pop    %edi
 804acca:	c9                   	leave
 804accb:	c3                   	ret
 804accc:	90                   	nop
 804accd:	90                   	nop
 804acce:	90                   	nop
 804accf:	90                   	nop
 804acd0:	55                   	push   %ebp
 804acd1:	89 e5                	mov    %esp,%ebp
 804acd3:	83 ec 04             	sub    $0x4,%esp
 804acd6:	57                   	push   %edi
 804acd7:	56                   	push   %esi
 804acd8:	8b 75 0c             	mov    0xc(%ebp),%esi
 804acdb:	8b 7d 10             	mov    0x10(%ebp),%edi
 804acde:	c7 46 0c 00 00 00 00 	movl   $0x0,0xc(%esi)
 804ace5:	c7 46 08 00 00 00 00 	movl   $0x0,0x8(%esi)
 804acec:	c7 46 04 00 00 00 00 	movl   $0x0,0x4(%esi)
 804acf3:	c7 06 00 00 00 00    	movl   $0x0,(%esi)
 804acf9:	c6 46 13 00          	movb   $0x0,0x13(%esi)
 804acfd:	c6 46 12 00          	movb   $0x0,0x12(%esi)
 804ad01:	c6 46 11 00          	movb   $0x0,0x11(%esi)
 804ad05:	c6 46 10 00          	movb   $0x0,0x10(%esi)
 804ad09:	c6 46 17 00          	movb   $0x0,0x17(%esi)
 804ad0d:	c6 46 16 00          	movb   $0x0,0x16(%esi)
 804ad11:	c6 46 14 00          	movb   $0x0,0x14(%esi)
 804ad15:	8b 4d 08             	mov    0x8(%ebp),%ecx
 804ad18:	8a 01                	mov    (%ecx),%al
 804ad1a:	3c 5c                	cmp    $0x5c,%al
 804ad1c:	75 32                	jne    804ad50 <strcpy@plt+0x2380>
 804ad1e:	80 79 01 5c          	cmpb   $0x5c,0x1(%ecx)
 804ad22:	75 2c                	jne    804ad50 <strcpy@plt+0x2380>
 804ad24:	89 0e                	mov    %ecx,(%esi)
 804ad26:	83 c1 02             	add    $0x2,%ecx
 804ad29:	89 4d 08             	mov    %ecx,0x8(%ebp)
 804ad2c:	eb 0c                	jmp    804ad3a <strcpy@plt+0x236a>
 804ad2e:	89 f6                	mov    %esi,%esi
 804ad30:	3c 5c                	cmp    $0x5c,%al
 804ad32:	74 0c                	je     804ad40 <strcpy@plt+0x2370>
 804ad34:	ff 45 08             	incl   0x8(%ebp)
 804ad37:	8b 4d 08             	mov    0x8(%ebp),%ecx
 804ad3a:	8a 01                	mov    (%ecx),%al
 804ad3c:	84 c0                	test   %al,%al
 804ad3e:	75 f0                	jne    804ad30 <strcpy@plt+0x2360>
 804ad40:	8a 4d 08             	mov    0x8(%ebp),%cl
 804ad43:	2a 0e                	sub    (%esi),%cl
 804ad45:	88 4e 10             	mov    %cl,0x10(%esi)
 804ad48:	8b 55 08             	mov    0x8(%ebp),%edx
 804ad4b:	eb 61                	jmp    804adae <strcpy@plt+0x23de>
 804ad4d:	8d 76 00             	lea    0x0(%esi),%esi
 804ad50:	8b 55 08             	mov    0x8(%ebp),%edx
 804ad53:	84 c0                	test   %al,%al
 804ad55:	74 57                	je     804adae <strcpy@plt+0x23de>
 804ad57:	0f be 02             	movsbl (%edx),%eax
 804ad5a:	39 f8                	cmp    %edi,%eax
 804ad5c:	74 50                	je     804adae <strcpy@plt+0x23de>
 804ad5e:	80 3a 3a             	cmpb   $0x3a,(%edx)
 804ad61:	75 45                	jne    804ada8 <strcpy@plt+0x23d8>
 804ad63:	3b 55 08             	cmp    0x8(%ebp),%edx
 804ad66:	74 40                	je     804ada8 <strcpy@plt+0x23d8>
 804ad68:	83 3e 00             	cmpl   $0x0,(%esi)
 804ad6b:	75 3b                	jne    804ada8 <strcpy@plt+0x23d8>
 804ad6d:	8b 4d 08             	mov    0x8(%ebp),%ecx
 804ad70:	89 0e                	mov    %ecx,(%esi)
 804ad72:	42                   	inc    %edx
 804ad73:	88 d0                	mov    %dl,%al
 804ad75:	28 c8                	sub    %cl,%al
 804ad77:	88 46 10             	mov    %al,0x10(%esi)
 804ad7a:	80 3a 2f             	cmpb   $0x2f,(%edx)
 804ad7d:	75 04                	jne    804ad83 <strcpy@plt+0x23b3>
 804ad7f:	80 4e 14 40          	orb    $0x40,0x14(%esi)
 804ad83:	0f b6 4e 14          	movzbl 0x14(%esi),%ecx
 804ad87:	89 4d fc             	mov    %ecx,-0x4(%ebp)
 804ad8a:	0f be 02             	movsbl (%edx),%eax
 804ad8d:	39 f8                	cmp    %edi,%eax
 804ad8f:	75 07                	jne    804ad98 <strcpy@plt+0x23c8>
 804ad91:	8a 45 fc             	mov    -0x4(%ebp),%al
 804ad94:	0c 18                	or     $0x18,%al
 804ad96:	eb 05                	jmp    804ad9d <strcpy@plt+0x23cd>
 804ad98:	8a 45 fc             	mov    -0x4(%ebp),%al
 804ad9b:	0c 20                	or     $0x20,%al
 804ad9d:	88 46 14             	mov    %al,0x14(%esi)
 804ada0:	89 55 08             	mov    %edx,0x8(%ebp)
 804ada3:	80 3a 00             	cmpb   $0x0,(%edx)
 804ada6:	74 06                	je     804adae <strcpy@plt+0x23de>
 804ada8:	42                   	inc    %edx
 804ada9:	80 3a 00             	cmpb   $0x0,(%edx)
 804adac:	75 a9                	jne    804ad57 <strcpy@plt+0x2387>
 804adae:	8b 4d 08             	mov    0x8(%ebp),%ecx
 804adb1:	0f be 01             	movsbl (%ecx),%eax
 804adb4:	39 f8                	cmp    %edi,%eax
 804adb6:	75 08                	jne    804adc0 <strcpy@plt+0x23f0>
 804adb8:	80 4e 14 18          	orb    $0x18,0x14(%esi)
 804adbc:	41                   	inc    %ecx
 804adbd:	89 4d 08             	mov    %ecx,0x8(%ebp)
 804adc0:	8b 4d 08             	mov    0x8(%ebp),%ecx
 804adc3:	89 4e 04             	mov    %ecx,0x4(%esi)
 804adc6:	80 3a 00             	cmpb   $0x0,(%edx)
 804adc9:	74 1c                	je     804ade7 <strcpy@plt+0x2417>
 804adcb:	90                   	nop
 804adcc:	8d 74 26 00          	lea    0x0(%esi,%eiz,1),%esi
 804add0:	0f be 02             	movsbl (%edx),%eax
 804add3:	39 f8                	cmp    %edi,%eax
 804add5:	75 0a                	jne    804ade1 <strcpy@plt+0x2411>
 804add7:	8d 4a 01             	lea    0x1(%edx),%ecx
 804adda:	89 4d 08             	mov    %ecx,0x8(%ebp)
 804addd:	80 4e 14 10          	orb    $0x10,0x14(%esi)
 804ade1:	42                   	inc    %edx
 804ade2:	80 3a 00             	cmpb   $0x0,(%edx)
 804ade5:	75 e9                	jne    804add0 <strcpy@plt+0x2400>
 804ade7:	8b 4d 08             	mov    0x8(%ebp),%ecx
 804adea:	89 4e 08             	mov    %ecx,0x8(%esi)
 804aded:	80 39 2e             	cmpb   $0x2e,(%ecx)
 804adf0:	75 22                	jne    804ae14 <strcpy@plt+0x2444>
 804adf2:	8a 41 01             	mov    0x1(%ecx),%al
 804adf5:	84 c0                	test   %al,%al
 804adf7:	74 0a                	je     804ae03 <strcpy@plt+0x2433>
 804adf9:	3c 2e                	cmp    $0x2e,%al
 804adfb:	75 17                	jne    804ae14 <strcpy@plt+0x2444>
 804adfd:	80 79 02 00          	cmpb   $0x0,0x2(%ecx)
 804ae01:	75 11                	jne    804ae14 <strcpy@plt+0x2444>
 804ae03:	80 4e 14 10          	orb    $0x10,0x14(%esi)
 804ae07:	89 55 08             	mov    %edx,0x8(%ebp)
 804ae0a:	88 d1                	mov    %dl,%cl
 804ae0c:	2a 4e 04             	sub    0x4(%esi),%cl
 804ae0f:	88 4e 11             	mov    %cl,0x11(%esi)
 804ae12:	eb 37                	jmp    804ae4b <strcpy@plt+0x247b>
 804ae14:	8b 4d 08             	mov    0x8(%ebp),%ecx
 804ae17:	39 4e 04             	cmp    %ecx,0x4(%esi)
 804ae1a:	75 24                	jne    804ae40 <strcpy@plt+0x2470>
 804ae1c:	c7 46 04 00 00 00 00 	movl   $0x0,0x4(%esi)
 804ae23:	eb 26                	jmp    804ae4b <strcpy@plt+0x247b>
 804ae25:	8d 4a 01             	lea    0x1(%edx),%ecx
 804ae28:	89 4e 0c             	mov    %ecx,0xc(%esi)
 804ae2b:	2a 55 08             	sub    0x8(%ebp),%dl
 804ae2e:	8a 46 12             	mov    0x12(%esi),%al
 804ae31:	28 d0                	sub    %dl,%al
 804ae33:	fe c8                	dec    %al
 804ae35:	88 46 13             	mov    %al,0x13(%esi)
 804ae38:	88 56 12             	mov    %dl,0x12(%esi)
 804ae3b:	eb 26                	jmp    804ae63 <strcpy@plt+0x2493>
 804ae3d:	8d 76 00             	lea    0x0(%esi),%esi
 804ae40:	8a 45 08             	mov    0x8(%ebp),%al
 804ae43:	2a 46 04             	sub    0x4(%esi),%al
 804ae46:	fe c8                	dec    %al
 804ae48:	88 46 11             	mov    %al,0x11(%esi)
 804ae4b:	88 d0                	mov    %dl,%al
 804ae4d:	2a 45 08             	sub    0x8(%ebp),%al
 804ae50:	88 46 12             	mov    %al,0x12(%esi)
 804ae53:	3b 55 08             	cmp    0x8(%ebp),%edx
 804ae56:	74 0b                	je     804ae63 <strcpy@plt+0x2493>
 804ae58:	4a                   	dec    %edx
 804ae59:	80 3a 2e             	cmpb   $0x2e,(%edx)
 804ae5c:	74 c7                	je     804ae25 <strcpy@plt+0x2455>
 804ae5e:	3b 55 08             	cmp    0x8(%ebp),%edx
 804ae61:	75 f5                	jne    804ae58 <strcpy@plt+0x2488>
 804ae63:	89 f9                	mov    %edi,%ecx
 804ae65:	88 4e 16             	mov    %cl,0x16(%esi)
 804ae68:	8d 65 f4             	lea    -0xc(%ebp),%esp
 804ae6b:	5e                   	pop    %esi
 804ae6c:	5f                   	pop    %edi
 804ae6d:	c9                   	leave
 804ae6e:	c3                   	ret
 804ae6f:	90                   	nop
 804ae70:	55                   	push   %ebp
 804ae71:	89 e5                	mov    %esp,%ebp
 804ae73:	57                   	push   %edi
 804ae74:	56                   	push   %esi
 804ae75:	8b 75 10             	mov    0x10(%ebp),%esi
 804ae78:	0f be 0e             	movsbl (%esi),%ecx
 804ae7b:	46                   	inc    %esi
 804ae7c:	85 c9                	test   %ecx,%ecx
 804ae7e:	74 51                	je     804aed1 <strcpy@plt+0x2501>
 804ae80:	eb 04                	jmp    804ae86 <strcpy@plt+0x24b6>
 804ae82:	0f be 0e             	movsbl (%esi),%ecx
 804ae85:	46                   	inc    %esi
 804ae86:	83 f9 20             	cmp    $0x20,%ecx
 804ae89:	74 f7                	je     804ae82 <strcpy@plt+0x24b2>
 804ae8b:	31 d2                	xor    %edx,%edx
 804ae8d:	3b 55 0c             	cmp    0xc(%ebp),%edx
 804ae90:	7d 1a                	jge    804aeac <strcpy@plt+0x24dc>
 804ae92:	8b 7d 08             	mov    0x8(%ebp),%edi
 804ae95:	0f be 04 3a          	movsbl (%edx,%edi,1),%eax
 804ae99:	39 c8                	cmp    %ecx,%eax
 804ae9b:	75 0a                	jne    804aea7 <strcpy@plt+0x24d7>
 804ae9d:	42                   	inc    %edx
 804ae9e:	0f be 0e             	movsbl (%esi),%ecx
 804aea1:	46                   	inc    %esi
 804aea2:	3b 55 0c             	cmp    0xc(%ebp),%edx
 804aea5:	7c eb                	jl     804ae92 <strcpy@plt+0x24c2>
 804aea7:	3b 55 0c             	cmp    0xc(%ebp),%edx
 804aeaa:	7c 1c                	jl     804aec8 <strcpy@plt+0x24f8>
 804aeac:	83 f9 20             	cmp    $0x20,%ecx
 804aeaf:	74 04                	je     804aeb5 <strcpy@plt+0x24e5>
 804aeb1:	85 c9                	test   %ecx,%ecx
 804aeb3:	75 13                	jne    804aec8 <strcpy@plt+0x24f8>
 804aeb5:	b8 01 00 00 00       	mov    $0x1,%eax
 804aeba:	eb 17                	jmp    804aed3 <strcpy@plt+0x2503>
 804aebc:	8d 74 26 00          	lea    0x0(%esi,%eiz,1),%esi
 804aec0:	85 c9                	test   %ecx,%ecx
 804aec2:	74 0d                	je     804aed1 <strcpy@plt+0x2501>
 804aec4:	0f be 0e             	movsbl (%esi),%ecx
 804aec7:	46                   	inc    %esi
 804aec8:	83 f9 20             	cmp    $0x20,%ecx
 804aecb:	75 f3                	jne    804aec0 <strcpy@plt+0x24f0>
 804aecd:	85 c9                	test   %ecx,%ecx
 804aecf:	75 b5                	jne    804ae86 <strcpy@plt+0x24b6>
 804aed1:	31 c0                	xor    %eax,%eax
 804aed3:	8d 65 f8             	lea    -0x8(%ebp),%esp
 804aed6:	5e                   	pop    %esi
 804aed7:	5f                   	pop    %edi
 804aed8:	c9                   	leave
 804aed9:	c3                   	ret
 804aeda:	89 f6                	mov    %esi,%esi
 804aedc:	55                   	push   %ebp
 804aedd:	89 e5                	mov    %esp,%ebp
 804aedf:	57                   	push   %edi
 804aee0:	56                   	push   %esi
 804aee1:	53                   	push   %ebx
 804aee2:	e8 00 00 00 00       	call   804aee7 <strcpy@plt+0x2517>
 804aee7:	5b                   	pop    %ebx
 804aee8:	81 c3 79 27 00 00    	add    $0x2779,%ebx
 804aeee:	8b 7d 08             	mov    0x8(%ebp),%edi
 804aef1:	8b 55 0c             	mov    0xc(%ebp),%edx
 804aef4:	8a 52 14             	mov    0x14(%edx),%dl
 804aef7:	89 d6                	mov    %edx,%esi
 804aef9:	f7 c6 20 00 00 00    	test   $0x20,%esi
 804aeff:	74 09                	je     804af0a <strcpy@plt+0x253a>
 804af01:	8b 4d 0c             	mov    0xc(%ebp),%ecx
 804af04:	0f b6 41 10          	movzbl 0x10(%ecx),%eax
 804af08:	01 c7                	add    %eax,%edi
 804af0a:	8a 07                	mov    (%edi),%al
 804af0c:	3c 3a                	cmp    $0x3a,%al
 804af0e:	74 34                	je     804af44 <strcpy@plt+0x2574>
 804af10:	3c 26                	cmp    $0x26,%al
 804af12:	74 2c                	je     804af40 <strcpy@plt+0x2570>
 804af14:	3c 24                	cmp    $0x24,%al
 804af16:	74 28                	je     804af40 <strcpy@plt+0x2570>
 804af18:	3c 5e                	cmp    $0x5e,%al
 804af1a:	74 10                	je     804af2c <strcpy@plt+0x255c>
 804af1c:	3c 40                	cmp    $0x40,%al
 804af1e:	74 0c                	je     804af2c <strcpy@plt+0x255c>
 804af20:	f7 c6 10 00 00 00    	test   $0x10,%esi
 804af26:	0f 85 50 01 00 00    	jne    804b07c <strcpy@plt+0x26ac>
 804af2c:	89 f2                	mov    %esi,%edx
 804af2e:	80 e2 20             	and    $0x20,%dl
 804af31:	8b 4d 0c             	mov    0xc(%ebp),%ecx
 804af34:	88 51 14             	mov    %dl,0x14(%ecx)
 804af37:	eb 66                	jmp    804af9f <strcpy@plt+0x25cf>
 804af39:	8d b4 26 00 00 00 00 	lea    0x0(%esi,%eiz,1),%esi
 804af40:	3c 3a                	cmp    $0x3a,%al
 804af42:	75 3c                	jne    804af80 <strcpy@plt+0x25b0>
 804af44:	8b 55 0c             	mov    0xc(%ebp),%edx
 804af47:	8b 32                	mov    (%edx),%esi
 804af49:	85 f6                	test   %esi,%esi
 804af4b:	75 0d                	jne    804af5a <strcpy@plt+0x258a>
 804af4d:	8b 4d 08             	mov    0x8(%ebp),%ecx
 804af50:	89 0a                	mov    %ecx,(%edx)
 804af52:	89 ce                	mov    %ecx,%esi
 804af54:	eb 04                	jmp    804af5a <strcpy@plt+0x258a>
 804af56:	84 c0                	test   %al,%al
 804af58:	74 07                	je     804af61 <strcpy@plt+0x2591>
 804af5a:	47                   	inc    %edi
 804af5b:	8a 07                	mov    (%edi),%al
 804af5d:	3c 2e                	cmp    $0x2e,%al
 804af5f:	75 f5                	jne    804af56 <strcpy@plt+0x2586>
 804af61:	3c 2e                	cmp    $0x2e,%al
 804af63:	75 01                	jne    804af66 <strcpy@plt+0x2596>
 804af65:	47                   	inc    %edi
 804af66:	85 f6                	test   %esi,%esi
 804af68:	74 0c                	je     804af76 <strcpy@plt+0x25a6>
 804af6a:	89 f8                	mov    %edi,%eax
 804af6c:	8b 55 0c             	mov    0xc(%ebp),%edx
 804af6f:	2a 02                	sub    (%edx),%al
 804af71:	fe c8                	dec    %al
 804af73:	88 42 10             	mov    %al,0x10(%edx)
 804af76:	8b 4d 0c             	mov    0xc(%ebp),%ecx
 804af79:	c6 41 14 00          	movb   $0x0,0x14(%ecx)
 804af7d:	eb 0c                	jmp    804af8b <strcpy@plt+0x25bb>
 804af7f:	90                   	nop
 804af80:	89 f2                	mov    %esi,%edx
 804af82:	80 e2 20             	and    $0x20,%dl
 804af85:	8b 4d 0c             	mov    0xc(%ebp),%ecx
 804af88:	88 51 14             	mov    %dl,0x14(%ecx)
 804af8b:	8a 07                	mov    (%edi),%al
 804af8d:	3c 26                	cmp    $0x26,%al
 804af8f:	74 04                	je     804af95 <strcpy@plt+0x25c5>
 804af91:	3c 24                	cmp    $0x24,%al
 804af93:	75 03                	jne    804af98 <strcpy@plt+0x25c8>
 804af95:	83 c7 02             	add    $0x2,%edi
 804af98:	8b 55 0c             	mov    0xc(%ebp),%edx
 804af9b:	80 4a 14 08          	orb    $0x8,0x14(%edx)
 804af9f:	89 fe                	mov    %edi,%esi
 804afa1:	89 7d 08             	mov    %edi,0x8(%ebp)
 804afa4:	89 f9                	mov    %edi,%ecx
 804afa6:	8b 55 0c             	mov    0xc(%ebp),%edx
 804afa9:	89 4a 04             	mov    %ecx,0x4(%edx)
 804afac:	80 39 00             	cmpb   $0x0,(%ecx)
 804afaf:	74 11                	je     804afc2 <strcpy@plt+0x25f2>
 804afb1:	80 3f 2e             	cmpb   $0x2e,(%edi)
 804afb4:	75 06                	jne    804afbc <strcpy@plt+0x25ec>
 804afb6:	89 75 08             	mov    %esi,0x8(%ebp)
 804afb9:	8d 77 01             	lea    0x1(%edi),%esi
 804afbc:	47                   	inc    %edi
 804afbd:	80 3f 00             	cmpb   $0x0,(%edi)
 804afc0:	75 ef                	jne    804afb1 <strcpy@plt+0x25e1>
 804afc2:	39 75 08             	cmp    %esi,0x8(%ebp)
 804afc5:	74 6b                	je     804b032 <strcpy@plt+0x2662>
 804afc7:	8b 4d 10             	mov    0x10(%ebp),%ecx
 804afca:	51                   	push   %ecx
 804afcb:	89 f0                	mov    %esi,%eax
 804afcd:	2b 45 08             	sub    0x8(%ebp),%eax
 804afd0:	48                   	dec    %eax
 804afd1:	50                   	push   %eax
 804afd2:	8b 55 08             	mov    0x8(%ebp),%edx
 804afd5:	52                   	push   %edx
 804afd6:	e8 95 fe ff ff       	call   804ae70 <strcpy@plt+0x24a0>
 804afdb:	83 c4 0c             	add    $0xc,%esp
 804afde:	85 c0                	test   %eax,%eax
 804afe0:	74 20                	je     804b002 <strcpy@plt+0x2632>
 804afe2:	8b 4d 08             	mov    0x8(%ebp),%ecx
 804afe5:	8b 55 0c             	mov    0xc(%ebp),%edx
 804afe8:	89 4a 0c             	mov    %ecx,0xc(%edx)
 804afeb:	89 f0                	mov    %esi,%eax
 804afed:	28 c8                	sub    %cl,%al
 804afef:	fe c8                	dec    %al
 804aff1:	88 42 13             	mov    %al,0x13(%edx)
 804aff4:	89 72 08             	mov    %esi,0x8(%edx)
 804aff7:	89 f8                	mov    %edi,%eax
 804aff9:	89 f1                	mov    %esi,%ecx
 804affb:	28 c8                	sub    %cl,%al
 804affd:	88 42 12             	mov    %al,0x12(%edx)
 804b000:	eb 4d                	jmp    804b04f <strcpy@plt+0x267f>
 804b002:	8b 55 10             	mov    0x10(%ebp),%edx
 804b005:	52                   	push   %edx
 804b006:	89 f8                	mov    %edi,%eax
 804b008:	29 f0                	sub    %esi,%eax
 804b00a:	50                   	push   %eax
 804b00b:	56                   	push   %esi
 804b00c:	e8 5f fe ff ff       	call   804ae70 <strcpy@plt+0x24a0>
 804b011:	85 c0                	test   %eax,%eax
 804b013:	74 1d                	je     804b032 <strcpy@plt+0x2662>
 804b015:	8b 4d 0c             	mov    0xc(%ebp),%ecx
 804b018:	89 71 0c             	mov    %esi,0xc(%ecx)
 804b01b:	89 f8                	mov    %edi,%eax
 804b01d:	89 f2                	mov    %esi,%edx
 804b01f:	28 d0                	sub    %dl,%al
 804b021:	88 41 13             	mov    %al,0x13(%ecx)
 804b024:	8b 55 08             	mov    0x8(%ebp),%edx
 804b027:	89 51 08             	mov    %edx,0x8(%ecx)
 804b02a:	89 f0                	mov    %esi,%eax
 804b02c:	28 d0                	sub    %dl,%al
 804b02e:	fe c8                	dec    %al
 804b030:	eb 1a                	jmp    804b04c <strcpy@plt+0x267c>
 804b032:	8b 4d 0c             	mov    0xc(%ebp),%ecx
 804b035:	c7 41 0c 00 00 00 00 	movl   $0x0,0xc(%ecx)
 804b03c:	c6 41 13 00          	movb   $0x0,0x13(%ecx)
 804b040:	89 75 08             	mov    %esi,0x8(%ebp)
 804b043:	89 f2                	mov    %esi,%edx
 804b045:	89 51 08             	mov    %edx,0x8(%ecx)
 804b048:	89 f8                	mov    %edi,%eax
 804b04a:	28 d0                	sub    %dl,%al
 804b04c:	88 41 12             	mov    %al,0x12(%ecx)
 804b04f:	8b 4d 08             	mov    0x8(%ebp),%ecx
 804b052:	8b 55 0c             	mov    0xc(%ebp),%edx
 804b055:	39 4a 04             	cmp    %ecx,0x4(%edx)
 804b058:	75 0d                	jne    804b067 <strcpy@plt+0x2697>
 804b05a:	c7 42 04 00 00 00 00 	movl   $0x0,0x4(%edx)
 804b061:	c6 42 11 00          	movb   $0x0,0x11(%edx)
 804b065:	eb 0e                	jmp    804b075 <strcpy@plt+0x26a5>
 804b067:	8a 45 08             	mov    0x8(%ebp),%al
 804b06a:	8b 4d 0c             	mov    0xc(%ebp),%ecx
 804b06d:	2a 41 04             	sub    0x4(%ecx),%al
 804b070:	fe c8                	dec    %al
 804b072:	88 41 11             	mov    %al,0x11(%ecx)
 804b075:	8b 55 0c             	mov    0xc(%ebp),%edx
 804b078:	c6 42 16 2e          	movb   $0x2e,0x16(%edx)
 804b07c:	8d 65 f4             	lea    -0xc(%ebp),%esp
 804b07f:	5b                   	pop    %ebx
 804b080:	5e                   	pop    %esi
 804b081:	5f                   	pop    %edi
 804b082:	c9                   	leave
 804b083:	c3                   	ret
 804b084:	55                   	push   %ebp
 804b085:	89 e5                	mov    %esp,%ebp
 804b087:	83 ec 04             	sub    $0x4,%esp
 804b08a:	57                   	push   %edi
 804b08b:	56                   	push   %esi
 804b08c:	8b 45 08             	mov    0x8(%ebp),%eax
 804b08f:	8b 75 0c             	mov    0xc(%ebp),%esi
 804b092:	f6 46 14 10          	testb  $0x10,0x14(%esi)
 804b096:	0f 85 b9 00 00 00    	jne    804b155 <strcpy@plt+0x2785>
 804b09c:	c6 46 14 00          	movb   $0x0,0x14(%esi)
 804b0a0:	c7 46 04 00 00 00 00 	movl   $0x0,0x4(%esi)
 804b0a7:	c7 06 00 00 00 00    	movl   $0x0,(%esi)
 804b0ad:	c6 46 10 00          	movb   $0x0,0x10(%esi)
 804b0b1:	c6 46 11 00          	movb   $0x0,0x11(%esi)
 804b0b5:	89 c1                	mov    %eax,%ecx
 804b0b7:	c7 45 fc 00 00 00 00 	movl   $0x0,-0x4(%ebp)
 804b0be:	80 38 00             	cmpb   $0x0,(%eax)
 804b0c1:	74 3c                	je     804b0ff <strcpy@plt+0x272f>
 804b0c3:	80 39 3a             	cmpb   $0x3a,(%ecx)
 804b0c6:	75 31                	jne    804b0f9 <strcpy@plt+0x2729>
 804b0c8:	83 7d fc 00          	cmpl   $0x0,-0x4(%ebp)
 804b0cc:	75 29                	jne    804b0f7 <strcpy@plt+0x2727>
 804b0ce:	39 c1                	cmp    %eax,%ecx
 804b0d0:	74 1e                	je     804b0f0 <strcpy@plt+0x2720>
 804b0d2:	83 3e 00             	cmpl   $0x0,(%esi)
 804b0d5:	75 19                	jne    804b0f0 <strcpy@plt+0x2720>
 804b0d7:	89 06                	mov    %eax,(%esi)
 804b0d9:	88 ca                	mov    %cl,%dl
 804b0db:	28 c2                	sub    %al,%dl
 804b0dd:	88 d0                	mov    %dl,%al
 804b0df:	fe c0                	inc    %al
 804b0e1:	88 46 10             	mov    %al,0x10(%esi)
 804b0e4:	80 4e 14 08          	orb    $0x8,0x14(%esi)
 804b0e8:	8b 56 04             	mov    0x4(%esi),%edx
 804b0eb:	89 55 fc             	mov    %edx,-0x4(%ebp)
 804b0ee:	eb 07                	jmp    804b0f7 <strcpy@plt+0x2727>
 804b0f0:	40                   	inc    %eax
 804b0f1:	89 46 04             	mov    %eax,0x4(%esi)
 804b0f4:	89 45 fc             	mov    %eax,-0x4(%ebp)
 804b0f7:	89 c8                	mov    %ecx,%eax
 804b0f9:	41                   	inc    %ecx
 804b0fa:	80 39 00             	cmpb   $0x0,(%ecx)
 804b0fd:	75 c4                	jne    804b0c3 <strcpy@plt+0x26f3>
 804b0ff:	8d 78 01             	lea    0x1(%eax),%edi
 804b102:	39 7d fc             	cmp    %edi,-0x4(%ebp)
 804b105:	75 09                	jne    804b110 <strcpy@plt+0x2740>
 804b107:	c7 46 04 00 00 00 00 	movl   $0x0,0x4(%esi)
 804b10e:	eb 0e                	jmp    804b11e <strcpy@plt+0x274e>
 804b110:	83 7d fc 00          	cmpl   $0x0,-0x4(%ebp)
 804b114:	74 08                	je     804b11e <strcpy@plt+0x274e>
 804b116:	88 c2                	mov    %al,%dl
 804b118:	2a 56 04             	sub    0x4(%esi),%dl
 804b11b:	88 56 11             	mov    %dl,0x11(%esi)
 804b11e:	80 38 3a             	cmpb   $0x3a,(%eax)
 804b121:	75 02                	jne    804b125 <strcpy@plt+0x2755>
 804b123:	89 f8                	mov    %edi,%eax
 804b125:	89 46 08             	mov    %eax,0x8(%esi)
 804b128:	28 c1                	sub    %al,%cl
 804b12a:	89 cf                	mov    %ecx,%edi
 804b12c:	88 4e 12             	mov    %cl,0x12(%esi)
 804b12f:	8b 4e 0c             	mov    0xc(%esi),%ecx
 804b132:	85 c9                	test   %ecx,%ecx
 804b134:	74 1b                	je     804b151 <strcpy@plt+0x2781>
 804b136:	39 c8                	cmp    %ecx,%eax
 804b138:	73 0c                	jae    804b146 <strcpy@plt+0x2776>
 804b13a:	89 fa                	mov    %edi,%edx
 804b13c:	fe ca                	dec    %dl
 804b13e:	2a 56 13             	sub    0x13(%esi),%dl
 804b141:	88 56 12             	mov    %dl,0x12(%esi)
 804b144:	eb 0b                	jmp    804b151 <strcpy@plt+0x2781>
 804b146:	c7 46 0c 00 00 00 00 	movl   $0x0,0xc(%esi)
 804b14d:	c6 46 13 00          	movb   $0x0,0x13(%esi)
 804b151:	c6 46 16 3a          	movb   $0x3a,0x16(%esi)
 804b155:	8d 65 f4             	lea    -0xc(%ebp),%esp
 804b158:	5e                   	pop    %esi
 804b159:	5f                   	pop    %edi
 804b15a:	c9                   	leave
 804b15b:	c3                   	ret
 804b15c:	55                   	push   %ebp
 804b15d:	89 e5                	mov    %esp,%ebp
 804b15f:	83 ec 04             	sub    $0x4,%esp
 804b162:	57                   	push   %edi
 804b163:	56                   	push   %esi
 804b164:	53                   	push   %ebx
 804b165:	e8 00 00 00 00       	call   804b16a <strcpy@plt+0x279a>
 804b16a:	5b                   	pop    %ebx
 804b16b:	81 c3 f6 24 00 00    	add    $0x24f6,%ebx
 804b171:	8b 7d 08             	mov    0x8(%ebp),%edi
 804b174:	8b 75 10             	mov    0x10(%ebp),%esi
 804b177:	8a 46 15             	mov    0x15(%esi),%al
 804b17a:	24 07                	and    $0x7,%al
 804b17c:	0f b6 c8             	movzbl %al,%ecx
 804b17f:	89 4d fc             	mov    %ecx,-0x4(%ebp)
 804b182:	80 3f 5c             	cmpb   $0x5c,(%edi)
 804b185:	74 1c                	je     804b1a3 <strcpy@plt+0x27d3>
 804b187:	0f be 07             	movsbl (%edi),%eax
 804b18a:	50                   	push   %eax
 804b18b:	e8 e0 d7 ff ff       	call   8048970 <isalpha@plt>
 804b190:	83 c4 04             	add    $0x4,%esp
 804b193:	85 c0                	test   %eax,%eax
 804b195:	74 29                	je     804b1c0 <strcpy@plt+0x27f0>
 804b197:	80 7f 01 3a          	cmpb   $0x3a,0x1(%edi)
 804b19b:	75 23                	jne    804b1c0 <strcpy@plt+0x27f0>
 804b19d:	80 7f 02 5c          	cmpb   $0x5c,0x2(%edi)
 804b1a1:	75 1d                	jne    804b1c0 <strcpy@plt+0x27f0>
 804b1a3:	6a 5c                	push   $0x5c
 804b1a5:	56                   	push   %esi
 804b1a6:	57                   	push   %edi
 804b1a7:	e8 24 fb ff ff       	call   804acd0 <strcpy@plt+0x2300>
 804b1ac:	8a 46 14             	mov    0x14(%esi),%al
 804b1af:	24 08                	and    $0x8,%al
 804b1b1:	0c 02                	or     $0x2,%al
 804b1b3:	88 46 15             	mov    %al,0x15(%esi)
 804b1b6:	e9 91 00 00 00       	jmp    804b24c <strcpy@plt+0x287c>
 804b1bb:	90                   	nop
 804b1bc:	8d 74 26 00          	lea    0x0(%esi,%eiz,1),%esi
 804b1c0:	6a 2f                	push   $0x2f
 804b1c2:	56                   	push   %esi
 804b1c3:	57                   	push   %edi
 804b1c4:	e8 07 fb ff ff       	call   804acd0 <strcpy@plt+0x2300>
 804b1c9:	83 c4 0c             	add    $0xc,%esp
 804b1cc:	83 7d fc 03          	cmpl   $0x3,-0x4(%ebp)
 804b1d0:	74 2e                	je     804b200 <strcpy@plt+0x2830>
 804b1d2:	8a 56 14             	mov    0x14(%esi),%dl
 804b1d5:	f6 c2 40             	test   $0x40,%dl
 804b1d8:	75 26                	jne    804b200 <strcpy@plt+0x2830>
 804b1da:	83 3e 00             	cmpl   $0x0,(%esi)
 804b1dd:	75 31                	jne    804b210 <strcpy@plt+0x2840>
 804b1df:	f6 c2 10             	test   $0x10,%dl
 804b1e2:	74 2c                	je     804b210 <strcpy@plt+0x2840>
 804b1e4:	83 7d fc 01          	cmpl   $0x1,-0x4(%ebp)
 804b1e8:	75 16                	jne    804b200 <strcpy@plt+0x2830>
 804b1ea:	8a 07                	mov    (%edi),%al
 804b1ec:	3c 3a                	cmp    $0x3a,%al
 804b1ee:	74 20                	je     804b210 <strcpy@plt+0x2840>
 804b1f0:	3c 24                	cmp    $0x24,%al
 804b1f2:	74 1c                	je     804b210 <strcpy@plt+0x2840>
 804b1f4:	3c 26                	cmp    $0x26,%al
 804b1f6:	74 18                	je     804b210 <strcpy@plt+0x2840>
 804b1f8:	3c 5e                	cmp    $0x5e,%al
 804b1fa:	74 14                	je     804b210 <strcpy@plt+0x2840>
 804b1fc:	3c 40                	cmp    $0x40,%al
 804b1fe:	74 10                	je     804b210 <strcpy@plt+0x2840>
 804b200:	8a 46 14             	mov    0x14(%esi),%al
 804b203:	24 08                	and    $0x8,%al
 804b205:	0c 03                	or     $0x3,%al
 804b207:	88 46 15             	mov    %al,0x15(%esi)
 804b20a:	eb 40                	jmp    804b24c <strcpy@plt+0x287c>
 804b20c:	8d 74 26 00          	lea    0x0(%esi,%eiz,1),%esi
 804b210:	83 7d fc 01          	cmpl   $0x1,-0x4(%ebp)
 804b214:	75 0c                	jne    804b222 <strcpy@plt+0x2852>
 804b216:	ff 75 0c             	push   0xc(%ebp)
 804b219:	56                   	push   %esi
 804b21a:	57                   	push   %edi
 804b21b:	e8 bc fc ff ff       	call   804aedc <strcpy@plt+0x250c>
 804b220:	eb 1e                	jmp    804b240 <strcpy@plt+0x2870>
 804b222:	83 7d fc 04          	cmpl   $0x4,-0x4(%ebp)
 804b226:	75 09                	jne    804b231 <strcpy@plt+0x2861>
 804b228:	56                   	push   %esi
 804b229:	57                   	push   %edi
 804b22a:	e8 55 fe ff ff       	call   804b084 <strcpy@plt+0x26b4>
 804b22f:	eb 0f                	jmp    804b240 <strcpy@plt+0x2870>
 804b231:	83 7d fc 02          	cmpl   $0x2,-0x4(%ebp)
 804b235:	75 0c                	jne    804b243 <strcpy@plt+0x2873>
 804b237:	6a 5c                	push   $0x5c
 804b239:	56                   	push   %esi
 804b23a:	57                   	push   %edi
 804b23b:	e8 90 fa ff ff       	call   804acd0 <strcpy@plt+0x2300>
 804b240:	8a 56 14             	mov    0x14(%esi),%dl
 804b243:	80 e2 08             	and    $0x8,%dl
 804b246:	0a 55 fc             	or     -0x4(%ebp),%dl
 804b249:	88 56 15             	mov    %dl,0x15(%esi)
 804b24c:	8d 65 f0             	lea    -0x10(%ebp),%esp
 804b24f:	5b                   	pop    %ebx
 804b250:	5e                   	pop    %esi
 804b251:	5f                   	pop    %edi
 804b252:	c9                   	leave
 804b253:	c3                   	ret
 804b254:	55                   	push   %ebp
 804b255:	89 e5                	mov    %esp,%ebp
 804b257:	53                   	push   %ebx
 804b258:	e8 00 00 00 00       	call   804b25d <strcpy@plt+0x288d>
 804b25d:	5b                   	pop    %ebx
 804b25e:	81 c3 03 24 00 00    	add    $0x2403,%ebx
 804b264:	8b 45 10             	mov    0x10(%ebp),%eax
 804b267:	c6 40 15 03          	movb   $0x3,0x15(%eax)
 804b26b:	50                   	push   %eax
 804b26c:	ff 75 0c             	push   0xc(%ebp)
 804b26f:	ff 75 08             	push   0x8(%ebp)
 804b272:	e8 e5 fe ff ff       	call   804b15c <strcpy@plt+0x278c>
 804b277:	8b 5d fc             	mov    -0x4(%ebp),%ebx
 804b27a:	c9                   	leave
 804b27b:	c3                   	ret
 804b27c:	55                   	push   %ebp
 804b27d:	89 e5                	mov    %esp,%ebp
 804b27f:	83 ec 04             	sub    $0x4,%esp
 804b282:	57                   	push   %edi
 804b283:	56                   	push   %esi
 804b284:	8b 55 08             	mov    0x8(%ebp),%edx
 804b287:	8b 75 0c             	mov    0xc(%ebp),%esi
 804b28a:	8b 45 18             	mov    0x18(%ebp),%eax
 804b28d:	3b 55 14             	cmp    0x14(%ebp),%edx
 804b290:	74 30                	je     804b2c2 <strcpy@plt+0x28f2>
 804b292:	89 c7                	mov    %eax,%edi
 804b294:	81 e7 ff 00 00 00    	and    $0xff,%edi
 804b29a:	c1 e8 08             	shr    $0x8,%eax
 804b29d:	89 45 fc             	mov    %eax,-0x4(%ebp)
 804b2a0:	83 7d 10 00          	cmpl   $0x0,0x10(%ebp)
 804b2a4:	7e 1c                	jle    804b2c2 <strcpy@plt+0x28f2>
 804b2a6:	8a 06                	mov    (%esi),%al
 804b2a8:	88 02                	mov    %al,(%edx)
 804b2aa:	25 ff 00 00 00       	and    $0xff,%eax
 804b2af:	46                   	inc    %esi
 804b2b0:	39 f8                	cmp    %edi,%eax
 804b2b2:	75 05                	jne    804b2b9 <strcpy@plt+0x28e9>
 804b2b4:	8a 4d fc             	mov    -0x4(%ebp),%cl
 804b2b7:	88 0a                	mov    %cl,(%edx)
 804b2b9:	42                   	inc    %edx
 804b2ba:	ff 4d 10             	decl   0x10(%ebp)
 804b2bd:	3b 55 14             	cmp    0x14(%ebp),%edx
 804b2c0:	75 de                	jne    804b2a0 <strcpy@plt+0x28d0>
 804b2c2:	89 d0                	mov    %edx,%eax
 804b2c4:	8d 65 f4             	lea    -0xc(%ebp),%esp
 804b2c7:	5e                   	pop    %esi
 804b2c8:	5f                   	pop    %edi
 804b2c9:	c9                   	leave
 804b2ca:	c3                   	ret
 804b2cb:	90                   	nop
 804b2cc:	55                   	push   %ebp
 804b2cd:	89 e5                	mov    %esp,%ebp
 804b2cf:	83 ec 1c             	sub    $0x1c,%esp
 804b2d2:	57                   	push   %edi
 804b2d3:	56                   	push   %esi
 804b2d4:	53                   	push   %ebx
 804b2d5:	e8 00 00 00 00       	call   804b2da <strcpy@plt+0x290a>
 804b2da:	5b                   	pop    %ebx
 804b2db:	81 c3 86 23 00 00    	add    $0x2386,%ebx
 804b2e1:	8b 75 08             	mov    0x8(%ebp),%esi
 804b2e4:	8a 46 15             	mov    0x15(%esi),%al
 804b2e7:	89 c6                	mov    %eax,%esi
 804b2e9:	83 e6 07             	and    $0x7,%esi
 804b2ec:	89 75 fc             	mov    %esi,-0x4(%ebp)
 804b2ef:	8b 75 0c             	mov    0xc(%ebp),%esi
 804b2f2:	89 75 f8             	mov    %esi,-0x8(%ebp)
 804b2f5:	83 65 f8 10          	andl   $0x10,-0x8(%ebp)
 804b2f9:	8b 75 10             	mov    0x10(%ebp),%esi
 804b2fc:	89 75 f4             	mov    %esi,-0xc(%ebp)
 804b2ff:	8b 75 14             	mov    0x14(%ebp),%esi
 804b302:	01 75 f4             	add    %esi,-0xc(%ebp)
 804b305:	8b 4d 10             	mov    0x10(%ebp),%ecx
 804b308:	83 65 0c 07          	andl   $0x7,0xc(%ebp)
 804b30c:	75 07                	jne    804b315 <strcpy@plt+0x2945>
 804b30e:	c7 45 0c 03 00 00 00 	movl   $0x3,0xc(%ebp)
 804b315:	83 7d fc 01          	cmpl   $0x1,-0x4(%ebp)
 804b319:	74 15                	je     804b330 <strcpy@plt+0x2960>
 804b31b:	83 7d 0c 01          	cmpl   $0x1,0xc(%ebp)
 804b31f:	75 1f                	jne    804b340 <strcpy@plt+0x2970>
 804b321:	c7 45 f0 2e 2f 00 00 	movl   $0x2f2e,-0x10(%ebp)
 804b328:	eb 1d                	jmp    804b347 <strcpy@plt+0x2977>
 804b32a:	8d b6 00 00 00 00    	lea    0x0(%esi),%esi
 804b330:	83 7d 0c 01          	cmpl   $0x1,0xc(%ebp)
 804b334:	74 0a                	je     804b340 <strcpy@plt+0x2970>
 804b336:	c7 45 f0 2f 2e 00 00 	movl   $0x2e2f,-0x10(%ebp)
 804b33d:	eb 08                	jmp    804b347 <strcpy@plt+0x2977>
 804b33f:	90                   	nop
 804b340:	c7 45 f0 00 00 00 00 	movl   $0x0,-0x10(%ebp)
 804b347:	8b 75 08             	mov    0x8(%ebp),%esi
 804b34a:	8b 16                	mov    (%esi),%edx
 804b34c:	85 d2                	test   %edx,%edx
 804b34e:	0f 84 c0 00 00 00    	je     804b414 <strcpy@plt+0x2a44>
 804b354:	6a 00                	push   $0x0
 804b356:	8b 75 f4             	mov    -0xc(%ebp),%esi
 804b359:	56                   	push   %esi
 804b35a:	8b 75 08             	mov    0x8(%ebp),%esi
 804b35d:	0f b6 46 10          	movzbl 0x10(%esi),%eax
 804b361:	50                   	push   %eax
 804b362:	52                   	push   %edx
 804b363:	8b 75 10             	mov    0x10(%ebp),%esi
 804b366:	56                   	push   %esi
 804b367:	e8 10 ff ff ff       	call   804b27c <strcpy@plt+0x28ac>
 804b36c:	89 c1                	mov    %eax,%ecx
 804b36e:	83 c4 14             	add    $0x14,%esp
 804b371:	83 7d 0c 03          	cmpl   $0x3,0xc(%ebp)
 804b375:	74 17                	je     804b38e <strcpy@plt+0x29be>
 804b377:	8b 75 fc             	mov    -0x4(%ebp),%esi
 804b37a:	39 75 0c             	cmp    %esi,0xc(%ebp)
 804b37d:	74 0f                	je     804b38e <strcpy@plt+0x29be>
 804b37f:	80 79 ff 3a          	cmpb   $0x3a,-0x1(%ecx)
 804b383:	74 09                	je     804b38e <strcpy@plt+0x29be>
 804b385:	3b 4d f4             	cmp    -0xc(%ebp),%ecx
 804b388:	74 04                	je     804b38e <strcpy@plt+0x29be>
 804b38a:	c6 01 3a             	movb   $0x3a,(%ecx)
 804b38d:	41                   	inc    %ecx
 804b38e:	8b 75 08             	mov    0x8(%ebp),%esi
 804b391:	8a 46 14             	mov    0x14(%esi),%al
 804b394:	a8 40                	test   $0x40,%al
 804b396:	74 3c                	je     804b3d4 <strcpy@plt+0x2a04>
 804b398:	83 7d 0c 01          	cmpl   $0x1,0xc(%ebp)
 804b39c:	75 12                	jne    804b3b0 <strcpy@plt+0x29e0>
 804b39e:	3b 4d f4             	cmp    -0xc(%ebp),%ecx
 804b3a1:	0f 84 c1 00 00 00    	je     804b468 <strcpy@plt+0x2a98>
 804b3a7:	c6 01 3a             	movb   $0x3a,(%ecx)
 804b3aa:	e9 b8 00 00 00       	jmp    804b467 <strcpy@plt+0x2a97>
 804b3af:	90                   	nop
 804b3b0:	83 7d 0c 04          	cmpl   $0x4,0xc(%ebp)
 804b3b4:	0f 84 ae 00 00 00    	je     804b468 <strcpy@plt+0x2a98>
 804b3ba:	3b 4d f4             	cmp    -0xc(%ebp),%ecx
 804b3bd:	0f 84 a5 00 00 00    	je     804b468 <strcpy@plt+0x2a98>
 804b3c3:	8b 75 0c             	mov    0xc(%ebp),%esi
 804b3c6:	8a 84 1e bf ef ff ff 	mov    -0x1041(%esi,%ebx,1),%al
 804b3cd:	88 01                	mov    %al,(%ecx)
 804b3cf:	e9 93 00 00 00       	jmp    804b467 <strcpy@plt+0x2a97>
 804b3d4:	a8 08                	test   $0x8,%al
 804b3d6:	75 0a                	jne    804b3e2 <strcpy@plt+0x2a12>
 804b3d8:	83 7d 0c 03          	cmpl   $0x3,0xc(%ebp)
 804b3dc:	0f 85 86 00 00 00    	jne    804b468 <strcpy@plt+0x2a98>
 804b3e2:	83 7d 0c 01          	cmpl   $0x1,0xc(%ebp)
 804b3e6:	75 13                	jne    804b3fb <strcpy@plt+0x2a2b>
 804b3e8:	83 7d fc 01          	cmpl   $0x1,-0x4(%ebp)
 804b3ec:	75 04                	jne    804b3f2 <strcpy@plt+0x2a22>
 804b3ee:	a8 20                	test   $0x20,%al
 804b3f0:	74 09                	je     804b3fb <strcpy@plt+0x2a2b>
 804b3f2:	3b 4d f4             	cmp    -0xc(%ebp),%ecx
 804b3f5:	74 04                	je     804b3fb <strcpy@plt+0x2a2b>
 804b3f7:	c6 01 24             	movb   $0x24,(%ecx)
 804b3fa:	41                   	inc    %ecx
 804b3fb:	83 7d 0c 04          	cmpl   $0x4,0xc(%ebp)
 804b3ff:	74 67                	je     804b468 <strcpy@plt+0x2a98>
 804b401:	3b 4d f4             	cmp    -0xc(%ebp),%ecx
 804b404:	74 62                	je     804b468 <strcpy@plt+0x2a98>
 804b406:	8b 75 0c             	mov    0xc(%ebp),%esi
 804b409:	8a 84 1e bf ef ff ff 	mov    -0x1041(%esi,%ebx,1),%al
 804b410:	88 01                	mov    %al,(%ecx)
 804b412:	eb 53                	jmp    804b467 <strcpy@plt+0x2a97>
 804b414:	a8 08                	test   $0x8,%al
 804b416:	74 38                	je     804b450 <strcpy@plt+0x2a80>
 804b418:	83 7d 0c 01          	cmpl   $0x1,0xc(%ebp)
 804b41c:	75 12                	jne    804b430 <strcpy@plt+0x2a60>
 804b41e:	8b 75 f4             	mov    -0xc(%ebp),%esi
 804b421:	39 75 10             	cmp    %esi,0x10(%ebp)
 804b424:	74 0a                	je     804b430 <strcpy@plt+0x2a60>
 804b426:	8b 75 10             	mov    0x10(%ebp),%esi
 804b429:	c6 06 24             	movb   $0x24,(%esi)
 804b42c:	8b 4d 10             	mov    0x10(%ebp),%ecx
 804b42f:	41                   	inc    %ecx
 804b430:	83 7d 0c 04          	cmpl   $0x4,0xc(%ebp)
 804b434:	74 32                	je     804b468 <strcpy@plt+0x2a98>
 804b436:	3b 4d f4             	cmp    -0xc(%ebp),%ecx
 804b439:	74 2d                	je     804b468 <strcpy@plt+0x2a98>
 804b43b:	8b 75 0c             	mov    0xc(%ebp),%esi
 804b43e:	8a 84 1e bf ef ff ff 	mov    -0x1041(%esi,%ebx,1),%al
 804b445:	88 01                	mov    %al,(%ecx)
 804b447:	eb 1e                	jmp    804b467 <strcpy@plt+0x2a97>
 804b449:	8d b4 26 00 00 00 00 	lea    0x0(%esi,%eiz,1),%esi
 804b450:	83 7d 0c 04          	cmpl   $0x4,0xc(%ebp)
 804b454:	75 12                	jne    804b468 <strcpy@plt+0x2a98>
 804b456:	8b 75 f4             	mov    -0xc(%ebp),%esi
 804b459:	39 75 10             	cmp    %esi,0x10(%ebp)
 804b45c:	74 0a                	je     804b468 <strcpy@plt+0x2a98>
 804b45e:	8b 75 10             	mov    0x10(%ebp),%esi
 804b461:	c6 06 3a             	movb   $0x3a,(%esi)
 804b464:	8b 4d 10             	mov    0x10(%ebp),%ecx
 804b467:	41                   	inc    %ecx
 804b468:	8b 75 08             	mov    0x8(%ebp),%esi
 804b46b:	8b 46 04             	mov    0x4(%esi),%eax
 804b46e:	85 c0                	test   %eax,%eax
 804b470:	0f 84 16 01 00 00    	je     804b58c <strcpy@plt+0x2bbc>
 804b476:	89 45 e4             	mov    %eax,-0x1c(%ebp)
 804b479:	0f b6 46 11          	movzbl 0x11(%esi),%eax
 804b47d:	03 45 e4             	add    -0x1c(%ebp),%eax
 804b480:	89 45 ec             	mov    %eax,-0x14(%ebp)
 804b483:	8b 75 fc             	mov    -0x4(%ebp),%esi
 804b486:	0f be b4 1e bf ef ff 	movsbl -0x1041(%esi,%ebx,1),%esi
 804b48d:	ff 
 804b48e:	89 75 e8             	mov    %esi,-0x18(%ebp)
 804b491:	8b 7d e4             	mov    -0x1c(%ebp),%edi
 804b494:	39 c7                	cmp    %eax,%edi
 804b496:	0f 87 f0 00 00 00    	ja     804b58c <strcpy@plt+0x2bbc>
 804b49c:	8d 74 26 00          	lea    0x0(%esi,%eiz,1),%esi
 804b4a0:	3b 7d ec             	cmp    -0x14(%ebp),%edi
 804b4a3:	73 0c                	jae    804b4b1 <strcpy@plt+0x2ae1>
 804b4a5:	0f be 07             	movsbl (%edi),%eax
 804b4a8:	3b 45 e8             	cmp    -0x18(%ebp),%eax
 804b4ab:	0f 85 d1 00 00 00    	jne    804b582 <strcpy@plt+0x2bb2>
 804b4b1:	89 fa                	mov    %edi,%edx
 804b4b3:	2b 55 e4             	sub    -0x1c(%ebp),%edx
 804b4b6:	83 7d fc 04          	cmpl   $0x4,-0x4(%ebp)
 804b4ba:	75 04                	jne    804b4c0 <strcpy@plt+0x2af0>
 804b4bc:	85 d2                	test   %edx,%edx
 804b4be:	74 31                	je     804b4f1 <strcpy@plt+0x2b21>
 804b4c0:	83 7d fc 01          	cmpl   $0x1,-0x4(%ebp)
 804b4c4:	75 0d                	jne    804b4d3 <strcpy@plt+0x2b03>
 804b4c6:	83 fa 01             	cmp    $0x1,%edx
 804b4c9:	75 08                	jne    804b4d3 <strcpy@plt+0x2b03>
 804b4cb:	8b 75 e4             	mov    -0x1c(%ebp),%esi
 804b4ce:	80 3e 5e             	cmpb   $0x5e,(%esi)
 804b4d1:	74 1e                	je     804b4f1 <strcpy@plt+0x2b21>
 804b4d3:	8b 45 fc             	mov    -0x4(%ebp),%eax
 804b4d6:	83 c0 fe             	add    $0xfffffffe,%eax
 804b4d9:	83 f8 01             	cmp    $0x1,%eax
 804b4dc:	77 42                	ja     804b520 <strcpy@plt+0x2b50>
 804b4de:	83 fa 02             	cmp    $0x2,%edx
 804b4e1:	75 3d                	jne    804b520 <strcpy@plt+0x2b50>
 804b4e3:	8b 75 e4             	mov    -0x1c(%ebp),%esi
 804b4e6:	80 3e 2e             	cmpb   $0x2e,(%esi)
 804b4e9:	75 35                	jne    804b520 <strcpy@plt+0x2b50>
 804b4eb:	80 7e 01 2e          	cmpb   $0x2e,0x1(%esi)
 804b4ef:	75 2f                	jne    804b520 <strcpy@plt+0x2b50>
 804b4f1:	83 7d 0c 01          	cmpl   $0x1,0xc(%ebp)
 804b4f5:	75 0b                	jne    804b502 <strcpy@plt+0x2b32>
 804b4f7:	3b 4d f4             	cmp    -0xc(%ebp),%ecx
 804b4fa:	74 52                	je     804b54e <strcpy@plt+0x2b7e>
 804b4fc:	c6 01 5e             	movb   $0x5e,(%ecx)
 804b4ff:	41                   	inc    %ecx
 804b500:	eb 4c                	jmp    804b54e <strcpy@plt+0x2b7e>
 804b502:	83 7d 0c 04          	cmpl   $0x4,0xc(%ebp)
 804b506:	74 62                	je     804b56a <strcpy@plt+0x2b9a>
 804b508:	3b 4d f4             	cmp    -0xc(%ebp),%ecx
 804b50b:	74 41                	je     804b54e <strcpy@plt+0x2b7e>
 804b50d:	c6 01 2e             	movb   $0x2e,(%ecx)
 804b510:	41                   	inc    %ecx
 804b511:	3b 4d f4             	cmp    -0xc(%ebp),%ecx
 804b514:	74 38                	je     804b54e <strcpy@plt+0x2b7e>
 804b516:	c6 01 2e             	movb   $0x2e,(%ecx)
 804b519:	41                   	inc    %ecx
 804b51a:	eb 32                	jmp    804b54e <strcpy@plt+0x2b7e>
 804b51c:	8d 74 26 00          	lea    0x0(%esi,%eiz,1),%esi
 804b520:	83 fa 01             	cmp    $0x1,%edx
 804b523:	75 11                	jne    804b536 <strcpy@plt+0x2b66>
 804b525:	8b 75 fc             	mov    -0x4(%ebp),%esi
 804b528:	8a 84 1e c5 ef ff ff 	mov    -0x103b(%esi,%ebx,1),%al
 804b52f:	8b 75 e4             	mov    -0x1c(%ebp),%esi
 804b532:	38 06                	cmp    %al,(%esi)
 804b534:	74 46                	je     804b57c <strcpy@plt+0x2bac>
 804b536:	8b 75 f0             	mov    -0x10(%ebp),%esi
 804b539:	56                   	push   %esi
 804b53a:	8b 75 f4             	mov    -0xc(%ebp),%esi
 804b53d:	56                   	push   %esi
 804b53e:	52                   	push   %edx
 804b53f:	8b 75 e4             	mov    -0x1c(%ebp),%esi
 804b542:	56                   	push   %esi
 804b543:	51                   	push   %ecx
 804b544:	e8 33 fd ff ff       	call   804b27c <strcpy@plt+0x28ac>
 804b549:	89 c1                	mov    %eax,%ecx
 804b54b:	83 c4 14             	add    $0x14,%esp
 804b54e:	83 7d 0c 04          	cmpl   $0x4,0xc(%ebp)
 804b552:	74 16                	je     804b56a <strcpy@plt+0x2b9a>
 804b554:	3b 7d ec             	cmp    -0x14(%ebp),%edi
 804b557:	72 11                	jb     804b56a <strcpy@plt+0x2b9a>
 804b559:	8b 75 08             	mov    0x8(%ebp),%esi
 804b55c:	0f b6 46 12          	movzbl 0x12(%esi),%eax
 804b560:	0f b6 56 13          	movzbl 0x13(%esi),%edx
 804b564:	01 d0                	add    %edx,%eax
 804b566:	85 c0                	test   %eax,%eax
 804b568:	7e 12                	jle    804b57c <strcpy@plt+0x2bac>
 804b56a:	3b 4d f4             	cmp    -0xc(%ebp),%ecx
 804b56d:	74 0d                	je     804b57c <strcpy@plt+0x2bac>
 804b56f:	8b 75 0c             	mov    0xc(%ebp),%esi
 804b572:	8a 84 1e bf ef ff ff 	mov    -0x1041(%esi,%ebx,1),%al
 804b579:	88 01                	mov    %al,(%ecx)
 804b57b:	41                   	inc    %ecx
 804b57c:	8d 77 01             	lea    0x1(%edi),%esi
 804b57f:	89 75 e4             	mov    %esi,-0x1c(%ebp)
 804b582:	47                   	inc    %edi
 804b583:	3b 7d ec             	cmp    -0x14(%ebp),%edi
 804b586:	0f 86 14 ff ff ff    	jbe    804b4a0 <strcpy@plt+0x2ad0>
 804b58c:	88 c8                	mov    %cl,%al
 804b58e:	2a 45 10             	sub    0x10(%ebp),%al
 804b591:	8b 75 08             	mov    0x8(%ebp),%esi
 804b594:	88 46 17             	mov    %al,0x17(%esi)
 804b597:	83 7d 0c 04          	cmpl   $0x4,0xc(%ebp)
 804b59b:	75 10                	jne    804b5ad <strcpy@plt+0x2bdd>
 804b59d:	3b 4d 10             	cmp    0x10(%ebp),%ecx
 804b5a0:	74 0b                	je     804b5ad <strcpy@plt+0x2bdd>
 804b5a2:	80 79 ff 3a          	cmpb   $0x3a,-0x1(%ecx)
 804b5a6:	75 05                	jne    804b5ad <strcpy@plt+0x2bdd>
 804b5a8:	fe c8                	dec    %al
 804b5aa:	88 46 17             	mov    %al,0x17(%esi)
 804b5ad:	83 7d 0c 01          	cmpl   $0x1,0xc(%ebp)
 804b5b1:	75 3a                	jne    804b5ed <strcpy@plt+0x2c1d>
 804b5b3:	8b 75 08             	mov    0x8(%ebp),%esi
 804b5b6:	80 7e 13 00          	cmpb   $0x0,0x13(%esi)
 804b5ba:	74 31                	je     804b5ed <strcpy@plt+0x2c1d>
 804b5bc:	f6 46 14 40          	testb  $0x40,0x14(%esi)
 804b5c0:	75 2b                	jne    804b5ed <strcpy@plt+0x2c1d>
 804b5c2:	6a 00                	push   $0x0
 804b5c4:	8b 75 f4             	mov    -0xc(%ebp),%esi
 804b5c7:	56                   	push   %esi
 804b5c8:	8b 75 08             	mov    0x8(%ebp),%esi
 804b5cb:	0f b6 46 13          	movzbl 0x13(%esi),%eax
 804b5cf:	50                   	push   %eax
 804b5d0:	ff 76 0c             	push   0xc(%esi)
 804b5d3:	51                   	push   %ecx
 804b5d4:	e8 a3 fc ff ff       	call   804b27c <strcpy@plt+0x28ac>
 804b5d9:	89 c1                	mov    %eax,%ecx
 804b5db:	83 c4 14             	add    $0x14,%esp
 804b5de:	80 7e 12 00          	cmpb   $0x0,0x12(%esi)
 804b5e2:	74 09                	je     804b5ed <strcpy@plt+0x2c1d>
 804b5e4:	3b 4d f4             	cmp    -0xc(%ebp),%ecx
 804b5e7:	74 04                	je     804b5ed <strcpy@plt+0x2c1d>
 804b5e9:	c6 01 2e             	movb   $0x2e,(%ecx)
 804b5ec:	41                   	inc    %ecx
 804b5ed:	8b 75 f0             	mov    -0x10(%ebp),%esi
 804b5f0:	56                   	push   %esi
 804b5f1:	8b 75 f4             	mov    -0xc(%ebp),%esi
 804b5f4:	56                   	push   %esi
 804b5f5:	8b 75 08             	mov    0x8(%ebp),%esi
 804b5f8:	0f b6 46 12          	movzbl 0x12(%esi),%eax
 804b5fc:	50                   	push   %eax
 804b5fd:	ff 76 08             	push   0x8(%esi)
 804b600:	51                   	push   %ecx
 804b601:	e8 76 fc ff ff       	call   804b27c <strcpy@plt+0x28ac>
 804b606:	89 c1                	mov    %eax,%ecx
 804b608:	83 c4 14             	add    $0x14,%esp
 804b60b:	80 7e 13 00          	cmpb   $0x0,0x13(%esi)
 804b60f:	74 3c                	je     804b64d <strcpy@plt+0x2c7d>
 804b611:	83 7d 0c 01          	cmpl   $0x1,0xc(%ebp)
 804b615:	75 06                	jne    804b61d <strcpy@plt+0x2c4d>
 804b617:	f6 46 14 40          	testb  $0x40,0x14(%esi)
 804b61b:	74 30                	je     804b64d <strcpy@plt+0x2c7d>
 804b61d:	3b 4d f4             	cmp    -0xc(%ebp),%ecx
 804b620:	74 12                	je     804b634 <strcpy@plt+0x2c64>
 804b622:	89 ca                	mov    %ecx,%edx
 804b624:	41                   	inc    %ecx
 804b625:	83 7d 0c 01          	cmpl   $0x1,0xc(%ebp)
 804b629:	75 05                	jne    804b630 <strcpy@plt+0x2c60>
 804b62b:	b0 2f                	mov    $0x2f,%al
 804b62d:	eb 03                	jmp    804b632 <strcpy@plt+0x2c62>
 804b62f:	90                   	nop
 804b630:	b0 2e                	mov    $0x2e,%al
 804b632:	88 02                	mov    %al,(%edx)
 804b634:	6a 00                	push   $0x0
 804b636:	8b 75 f4             	mov    -0xc(%ebp),%esi
 804b639:	56                   	push   %esi
 804b63a:	8b 75 08             	mov    0x8(%ebp),%esi
 804b63d:	0f b6 46 13          	movzbl 0x13(%esi),%eax
 804b641:	50                   	push   %eax
 804b642:	ff 76 0c             	push   0xc(%esi)
 804b645:	51                   	push   %ecx
 804b646:	e8 31 fc ff ff       	call   804b27c <strcpy@plt+0x28ac>
 804b64b:	89 c1                	mov    %eax,%ecx
 804b64d:	83 7d f8 00          	cmpl   $0x0,-0x8(%ebp)
 804b651:	74 36                	je     804b689 <strcpy@plt+0x2cb9>
 804b653:	83 7d 0c 04          	cmpl   $0x4,0xc(%ebp)
 804b657:	75 0e                	jne    804b667 <strcpy@plt+0x2c97>
 804b659:	3b 4d 10             	cmp    0x10(%ebp),%ecx
 804b65c:	76 20                	jbe    804b67e <strcpy@plt+0x2cae>
 804b65e:	80 79 ff 3a          	cmpb   $0x3a,-0x1(%ecx)
 804b662:	75 1a                	jne    804b67e <strcpy@plt+0x2cae>
 804b664:	49                   	dec    %ecx
 804b665:	eb 17                	jmp    804b67e <strcpy@plt+0x2cae>
 804b667:	3b 4d 10             	cmp    0x10(%ebp),%ecx
 804b66a:	74 12                	je     804b67e <strcpy@plt+0x2cae>
 804b66c:	3b 4d f4             	cmp    -0xc(%ebp),%ecx
 804b66f:	74 0d                	je     804b67e <strcpy@plt+0x2cae>
 804b671:	8b 75 0c             	mov    0xc(%ebp),%esi
 804b674:	8a 84 1e bf ef ff ff 	mov    -0x1041(%esi,%ebx,1),%al
 804b67b:	88 01                	mov    %al,(%ecx)
 804b67d:	41                   	inc    %ecx
 804b67e:	88 c8                	mov    %cl,%al
 804b680:	2a 45 10             	sub    0x10(%ebp),%al
 804b683:	8b 75 08             	mov    0x8(%ebp),%esi
 804b686:	88 46 17             	mov    %al,0x17(%esi)
 804b689:	3b 4d f4             	cmp    -0xc(%ebp),%ecx
 804b68c:	74 0a                	je     804b698 <strcpy@plt+0x2cc8>
 804b68e:	c6 01 00             	movb   $0x0,(%ecx)
 804b691:	2b 4d 10             	sub    0x10(%ebp),%ecx
 804b694:	89 c8                	mov    %ecx,%eax
 804b696:	eb 05                	jmp    804b69d <strcpy@plt+0x2ccd>
 804b698:	b8 ff ff ff ff       	mov    $0xffffffff,%eax
 804b69d:	8d 65 d8             	lea    -0x28(%ebp),%esp
 804b6a0:	5b                   	pop    %ebx
 804b6a1:	5e                   	pop    %esi
 804b6a2:	5f                   	pop    %edi
 804b6a3:	c9                   	leave
 804b6a4:	c3                   	ret
 804b6a5:	8d 76 00             	lea    0x0(%esi),%esi
 804b6a8:	55                   	push   %ebp
 804b6a9:	89 e5                	mov    %esp,%ebp
 804b6ab:	57                   	push   %edi
 804b6ac:	56                   	push   %esi
 804b6ad:	8b 75 08             	mov    0x8(%ebp),%esi
 804b6b0:	8b 7d 10             	mov    0x10(%ebp),%edi
 804b6b3:	8b 55 0c             	mov    0xc(%ebp),%edx
 804b6b6:	80 7a 10 00          	cmpb   $0x0,0x10(%edx)
 804b6ba:	74 08                	je     804b6c4 <strcpy@plt+0x2cf4>
 804b6bc:	8a 02                	mov    (%edx),%al
 804b6be:	89 f1                	mov    %esi,%ecx
 804b6c0:	28 c8                	sub    %cl,%al
 804b6c2:	eb 02                	jmp    804b6c6 <strcpy@plt+0x2cf6>
 804b6c4:	31 c0                	xor    %eax,%eax
 804b6c6:	88 07                	mov    %al,(%edi)
 804b6c8:	8b 55 0c             	mov    0xc(%ebp),%edx
 804b6cb:	80 7a 11 00          	cmpb   $0x0,0x11(%edx)
 804b6cf:	74 0f                	je     804b6e0 <strcpy@plt+0x2d10>
 804b6d1:	8a 42 04             	mov    0x4(%edx),%al
 804b6d4:	89 f1                	mov    %esi,%ecx
 804b6d6:	28 c8                	sub    %cl,%al
 804b6d8:	eb 08                	jmp    804b6e2 <strcpy@plt+0x2d12>
 804b6da:	8d b6 00 00 00 00    	lea    0x0(%esi),%esi
 804b6e0:	31 c0                	xor    %eax,%eax
 804b6e2:	88 47 01             	mov    %al,0x1(%edi)
 804b6e5:	8b 4d 0c             	mov    0xc(%ebp),%ecx
 804b6e8:	8a 51 08             	mov    0x8(%ecx),%dl
 804b6eb:	89 f1                	mov    %esi,%ecx
 804b6ed:	28 ca                	sub    %cl,%dl
 804b6ef:	88 57 02             	mov    %dl,0x2(%edi)
 804b6f2:	8b 55 0c             	mov    0xc(%ebp),%edx
 804b6f5:	80 7a 13 00          	cmpb   $0x0,0x13(%edx)
 804b6f9:	74 07                	je     804b702 <strcpy@plt+0x2d32>
 804b6fb:	8a 42 0c             	mov    0xc(%edx),%al
 804b6fe:	28 c8                	sub    %cl,%al
 804b700:	eb 02                	jmp    804b704 <strcpy@plt+0x2d34>
 804b702:	31 c0                	xor    %eax,%eax
 804b704:	88 47 03             	mov    %al,0x3(%edi)
 804b707:	8b 4d 0c             	mov    0xc(%ebp),%ecx
 804b70a:	8a 41 10             	mov    0x10(%ecx),%al
 804b70d:	88 47 04             	mov    %al,0x4(%edi)
 804b710:	8a 41 11             	mov    0x11(%ecx),%al
 804b713:	88 47 05             	mov    %al,0x5(%edi)
 804b716:	8a 41 12             	mov    0x12(%ecx),%al
 804b719:	88 47 06             	mov    %al,0x6(%edi)
 804b71c:	8a 41 13             	mov    0x13(%ecx),%al
 804b71f:	88 47 07             	mov    %al,0x7(%edi)
 804b722:	8a 41 14             	mov    0x14(%ecx),%al
 804b725:	88 47 08             	mov    %al,0x8(%edi)
 804b728:	8a 41 15             	mov    0x15(%ecx),%al
 804b72b:	88 47 09             	mov    %al,0x9(%edi)
 804b72e:	8a 41 16             	mov    0x16(%ecx),%al
 804b731:	88 47 0a             	mov    %al,0xa(%edi)
 804b734:	8a 41 17             	mov    0x17(%ecx),%al
 804b737:	88 47 0b             	mov    %al,0xb(%edi)
 804b73a:	8d 65 f8             	lea    -0x8(%ebp),%esp
 804b73d:	5e                   	pop    %esi
 804b73e:	5f                   	pop    %edi
 804b73f:	c9                   	leave
 804b740:	c3                   	ret
 804b741:	8d 76 00             	lea    0x0(%esi),%esi
 804b744:	55                   	push   %ebp
 804b745:	89 e5                	mov    %esp,%ebp
 804b747:	56                   	push   %esi
 804b748:	8b 75 08             	mov    0x8(%ebp),%esi
 804b74b:	8b 55 0c             	mov    0xc(%ebp),%edx
 804b74e:	8b 4d 10             	mov    0x10(%ebp),%ecx
 804b751:	80 7a 04 00          	cmpb   $0x0,0x4(%edx)
 804b755:	74 09                	je     804b760 <strcpy@plt+0x2d90>
 804b757:	0f b6 02             	movzbl (%edx),%eax
 804b75a:	01 f0                	add    %esi,%eax
 804b75c:	eb 04                	jmp    804b762 <strcpy@plt+0x2d92>
 804b75e:	89 f6                	mov    %esi,%esi
 804b760:	31 c0                	xor    %eax,%eax
 804b762:	89 01                	mov    %eax,(%ecx)
 804b764:	80 7a 05 00          	cmpb   $0x0,0x5(%edx)
 804b768:	74 08                	je     804b772 <strcpy@plt+0x2da2>
 804b76a:	0f b6 42 01          	movzbl 0x1(%edx),%eax
 804b76e:	01 f0                	add    %esi,%eax
 804b770:	eb 02                	jmp    804b774 <strcpy@plt+0x2da4>
 804b772:	31 c0                	xor    %eax,%eax
 804b774:	89 41 04             	mov    %eax,0x4(%ecx)
 804b777:	0f b6 42 02          	movzbl 0x2(%edx),%eax
 804b77b:	01 f0                	add    %esi,%eax
 804b77d:	89 41 08             	mov    %eax,0x8(%ecx)
 804b780:	80 7a 07 00          	cmpb   $0x0,0x7(%edx)
 804b784:	74 0a                	je     804b790 <strcpy@plt+0x2dc0>
 804b786:	0f b6 42 03          	movzbl 0x3(%edx),%eax
 804b78a:	01 f0                	add    %esi,%eax
 804b78c:	eb 04                	jmp    804b792 <strcpy@plt+0x2dc2>
 804b78e:	89 f6                	mov    %esi,%esi
 804b790:	31 c0                	xor    %eax,%eax
 804b792:	89 41 0c             	mov    %eax,0xc(%ecx)
 804b795:	8a 42 04             	mov    0x4(%edx),%al
 804b798:	88 41 10             	mov    %al,0x10(%ecx)
 804b79b:	8a 42 05             	mov    0x5(%edx),%al
 804b79e:	88 41 11             	mov    %al,0x11(%ecx)
 804b7a1:	8a 42 06             	mov    0x6(%edx),%al
 804b7a4:	88 41 12             	mov    %al,0x12(%ecx)
 804b7a7:	8a 42 07             	mov    0x7(%edx),%al
 804b7aa:	88 41 13             	mov    %al,0x13(%ecx)
 804b7ad:	8a 42 08             	mov    0x8(%edx),%al
 804b7b0:	88 41 14             	mov    %al,0x14(%ecx)
 804b7b3:	8a 42 09             	mov    0x9(%edx),%al
 804b7b6:	88 41 15             	mov    %al,0x15(%ecx)
 804b7b9:	8a 42 0a             	mov    0xa(%edx),%al
 804b7bc:	88 41 16             	mov    %al,0x16(%ecx)
 804b7bf:	8a 42 0b             	mov    0xb(%edx),%al
 804b7c2:	88 41 17             	mov    %al,0x17(%ecx)
 804b7c5:	8b 75 fc             	mov    -0x4(%ebp),%esi
 804b7c8:	c9                   	leave
 804b7c9:	c3                   	ret
 804b7ca:	89 f6                	mov    %esi,%esi
 804b7cc:	55                   	push   %ebp
 804b7cd:	89 e5                	mov    %esp,%ebp
 804b7cf:	8b 45 08             	mov    0x8(%ebp),%eax
 804b7d2:	85 c0                	test   %eax,%eax
 804b7d4:	74 0c                	je     804b7e2 <strcpy@plt+0x2e12>
 804b7d6:	8a 40 09             	mov    0x9(%eax),%al
 804b7d9:	24 07                	and    $0x7,%al
 804b7db:	25 ff 00 00 00       	and    $0xff,%eax
 804b7e0:	eb 05                	jmp    804b7e7 <strcpy@plt+0x2e17>
 804b7e2:	b8 03 00 00 00       	mov    $0x3,%eax
 804b7e7:	c9                   	leave
 804b7e8:	c3                   	ret
 804b7e9:	90                   	nop
 804b7ea:	90                   	nop
 804b7eb:	90                   	nop
 804b7ec:	90                   	nop
 804b7ed:	90                   	nop
 804b7ee:	90                   	nop
 804b7ef:	90                   	nop
 804b7f0:	55                   	push   %ebp
 804b7f1:	89 e5                	mov    %esp,%ebp
 804b7f3:	83 ec 0c             	sub    $0xc,%esp
 804b7f6:	57                   	push   %edi
 804b7f7:	56                   	push   %esi
 804b7f8:	53                   	push   %ebx
 804b7f9:	e8 00 00 00 00       	call   804b7fe <strcpy@plt+0x2e2e>
 804b7fe:	5b                   	pop    %ebx
 804b7ff:	81 c3 62 1e 00 00    	add    $0x1e62,%ebx
 804b805:	83 7d 0c 00          	cmpl   $0x0,0xc(%ebp)
 804b809:	74 06                	je     804b811 <strcpy@plt+0x2e41>
 804b80b:	83 7d 10 00          	cmpl   $0x0,0x10(%ebp)
 804b80f:	7f 0f                	jg     804b820 <strcpy@plt+0x2e50>
 804b811:	8b 45 08             	mov    0x8(%ebp),%eax
 804b814:	e9 d2 00 00 00       	jmp    804b8eb <strcpy@plt+0x2f1b>
 804b819:	8d b4 26 00 00 00 00 	lea    0x0(%esi,%eiz,1),%esi
 804b820:	8b 7d 08             	mov    0x8(%ebp),%edi
 804b823:	31 c0                	xor    %eax,%eax
 804b825:	fc                   	cld
 804b826:	b9 ff ff ff ff       	mov    $0xffffffff,%ecx
 804b82b:	f2 ae                	repnz scas %es:(%edi),%al
 804b82d:	f7 d1                	not    %ecx
 804b82f:	89 4d f8             	mov    %ecx,-0x8(%ebp)
 804b832:	49                   	dec    %ecx
 804b833:	89 4d f4             	mov    %ecx,-0xc(%ebp)
 804b836:	8b 75 08             	mov    0x8(%ebp),%esi
 804b839:	01 ce                	add    %ecx,%esi
 804b83b:	89 75 fc             	mov    %esi,-0x4(%ebp)
 804b83e:	83 f9 04             	cmp    $0x4,%ecx
 804b841:	7e 3b                	jle    804b87e <strcpy@plt+0x2eae>
 804b843:	89 f2                	mov    %esi,%edx
 804b845:	83 c2 fc             	add    $0xfffffffc,%edx
 804b848:	89 d0                	mov    %edx,%eax
 804b84a:	8d bb cb ef ff ff    	lea    -0x1035(%ebx),%edi
 804b850:	b9 05 00 00 00       	mov    $0x5,%ecx
 804b855:	89 c6                	mov    %eax,%esi
 804b857:	fc                   	cld
 804b858:	a8 00                	test   $0x0,%al
 804b85a:	f3 a6                	repz cmpsb %es:(%edi),%ds:(%esi)
 804b85c:	74 14                	je     804b872 <strcpy@plt+0x2ea2>
 804b85e:	8d bb d0 ef ff ff    	lea    -0x1030(%ebx),%edi
 804b864:	b9 05 00 00 00       	mov    $0x5,%ecx
 804b869:	89 c6                	mov    %eax,%esi
 804b86b:	fc                   	cld
 804b86c:	a8 00                	test   $0x0,%al
 804b86e:	f3 a6                	repz cmpsb %es:(%edi),%ds:(%esi)
 804b870:	75 0c                	jne    804b87e <strcpy@plt+0x2eae>
 804b872:	89 55 fc             	mov    %edx,-0x4(%ebp)
 804b875:	8b 45 f8             	mov    -0x8(%ebp),%eax
 804b878:	83 c0 fb             	add    $0xfffffffb,%eax
 804b87b:	89 45 f4             	mov    %eax,-0xc(%ebp)
 804b87e:	8b 55 f4             	mov    -0xc(%ebp),%edx
 804b881:	83 c2 fe             	add    $0xfffffffe,%edx
 804b884:	78 2d                	js     804b8b3 <strcpy@plt+0x2ee3>
 804b886:	8b 4d 08             	mov    0x8(%ebp),%ecx
 804b889:	0f be 3c 0a          	movsbl (%edx,%ecx,1),%edi
 804b88d:	83 ff 5c             	cmp    $0x5c,%edi
 804b890:	74 0f                	je     804b8a1 <strcpy@plt+0x2ed1>
 804b892:	83 ff 2f             	cmp    $0x2f,%edi
 804b895:	74 0a                	je     804b8a1 <strcpy@plt+0x2ed1>
 804b897:	83 ff 3a             	cmp    $0x3a,%edi
 804b89a:	74 05                	je     804b8a1 <strcpy@plt+0x2ed1>
 804b89c:	83 ff 2e             	cmp    $0x2e,%edi
 804b89f:	75 0f                	jne    804b8b0 <strcpy@plt+0x2ee0>
 804b8a1:	8b 75 08             	mov    0x8(%ebp),%esi
 804b8a4:	8d 54 16 01          	lea    0x1(%esi,%edx,1),%edx
 804b8a8:	89 55 08             	mov    %edx,0x8(%ebp)
 804b8ab:	eb 06                	jmp    804b8b3 <strcpy@plt+0x2ee3>
 804b8ad:	8d 76 00             	lea    0x0(%esi),%esi
 804b8b0:	4a                   	dec    %edx
 804b8b1:	79 d3                	jns    804b886 <strcpy@plt+0x2eb6>
 804b8b3:	8b 45 fc             	mov    -0x4(%ebp),%eax
 804b8b6:	2b 45 08             	sub    0x8(%ebp),%eax
 804b8b9:	89 45 f4             	mov    %eax,-0xc(%ebp)
 804b8bc:	8b 55 10             	mov    0x10(%ebp),%edx
 804b8bf:	4a                   	dec    %edx
 804b8c0:	39 d0                	cmp    %edx,%eax
 804b8c2:	7e 03                	jle    804b8c7 <strcpy@plt+0x2ef7>
 804b8c4:	89 55 f4             	mov    %edx,-0xc(%ebp)
 804b8c7:	83 7d f4 00          	cmpl   $0x0,-0xc(%ebp)
 804b8cb:	7e 11                	jle    804b8de <strcpy@plt+0x2f0e>
 804b8cd:	8b 4d f4             	mov    -0xc(%ebp),%ecx
 804b8d0:	51                   	push   %ecx
 804b8d1:	8b 75 08             	mov    0x8(%ebp),%esi
 804b8d4:	56                   	push   %esi
 804b8d5:	8b 45 0c             	mov    0xc(%ebp),%eax
 804b8d8:	50                   	push   %eax
 804b8d9:	e8 b2 d0 ff ff       	call   8048990 <strncpy@plt>
 804b8de:	8b 4d 0c             	mov    0xc(%ebp),%ecx
 804b8e1:	8b 75 f4             	mov    -0xc(%ebp),%esi
 804b8e4:	c6 04 0e 00          	movb   $0x0,(%esi,%ecx,1)
 804b8e8:	8b 45 0c             	mov    0xc(%ebp),%eax
 804b8eb:	8d 65 e8             	lea    -0x18(%ebp),%esp
 804b8ee:	5b                   	pop    %ebx
 804b8ef:	5e                   	pop    %esi
 804b8f0:	5f                   	pop    %edi
 804b8f1:	c9                   	leave
 804b8f2:	c3                   	ret
 804b8f3:	90                   	nop
 804b8f4:	90                   	nop
 804b8f5:	90                   	nop
 804b8f6:	90                   	nop
 804b8f7:	90                   	nop
 804b8f8:	90                   	nop
 804b8f9:	90                   	nop
 804b8fa:	90                   	nop
 804b8fb:	90                   	nop
 804b8fc:	90                   	nop
 804b8fd:	90                   	nop
 804b8fe:	90                   	nop
 804b8ff:	90                   	nop
 804b900:	55                   	push   %ebp
 804b901:	89 e5                	mov    %esp,%ebp
 804b903:	56                   	push   %esi
 804b904:	53                   	push   %ebx
 804b905:	e8 00 00 00 00       	call   804b90a <strcpy@plt+0x2f3a>
 804b90a:	5b                   	pop    %ebx
 804b90b:	81 c3 56 1d 00 00    	add    $0x1d56,%ebx
 804b911:	8b 55 08             	mov    0x8(%ebp),%edx
 804b914:	8b 75 10             	mov    0x10(%ebp),%esi
 804b917:	85 d2                	test   %edx,%edx
 804b919:	75 06                	jne    804b921 <strcpy@plt+0x2f51>
 804b91b:	8d 93 d6 ef ff ff    	lea    -0x102a(%ebx),%edx
 804b921:	8b 45 0c             	mov    0xc(%ebp),%eax
 804b924:	89 46 04             	mov    %eax,0x4(%esi)
 804b927:	52                   	push   %edx
 804b928:	e8 23 d0 ff ff       	call   8048950 <opendir@plt>
 804b92d:	89 06                	mov    %eax,(%esi)
 804b92f:	83 c4 04             	add    $0x4,%esp
 804b932:	85 c0                	test   %eax,%eax
 804b934:	75 0a                	jne    804b940 <strcpy@plt+0x2f70>
 804b936:	31 c0                	xor    %eax,%eax
 804b938:	eb 0c                	jmp    804b946 <strcpy@plt+0x2f76>
 804b93a:	8d b6 00 00 00 00    	lea    0x0(%esi),%esi
 804b940:	56                   	push   %esi
 804b941:	e8 0a 00 00 00       	call   804b950 <strcpy@plt+0x2f80>
 804b946:	8d 65 f8             	lea    -0x8(%ebp),%esp
 804b949:	5b                   	pop    %ebx
 804b94a:	5e                   	pop    %esi
 804b94b:	c9                   	leave
 804b94c:	c3                   	ret
 804b94d:	8d 76 00             	lea    0x0(%esi),%esi
 804b950:	55                   	push   %ebp
 804b951:	89 e5                	mov    %esp,%ebp
 804b953:	57                   	push   %edi
 804b954:	56                   	push   %esi
 804b955:	53                   	push   %ebx
 804b956:	e8 00 00 00 00       	call   804b95b <strcpy@plt+0x2f8b>
 804b95b:	5b                   	pop    %ebx
 804b95c:	81 c3 05 1d 00 00    	add    $0x1d05,%ebx
 804b962:	8b 7d 08             	mov    0x8(%ebp),%edi
 804b965:	eb 19                	jmp    804b980 <strcpy@plt+0x2fb0>
 804b967:	8d 70 0b             	lea    0xb(%eax),%esi
 804b96a:	56                   	push   %esi
 804b96b:	ff 77 04             	push   0x4(%edi)
 804b96e:	e8 1d 01 00 00       	call   804ba90 <strcpy@plt+0x30c0>
 804b973:	83 c4 08             	add    $0x8,%esp
 804b976:	85 c0                	test   %eax,%eax
 804b978:	74 06                	je     804b980 <strcpy@plt+0x2fb0>
 804b97a:	89 f0                	mov    %esi,%eax
 804b97c:	eb 12                	jmp    804b990 <strcpy@plt+0x2fc0>
 804b97e:	89 f6                	mov    %esi,%esi
 804b980:	ff 37                	push   (%edi)
 804b982:	e8 39 d0 ff ff       	call   80489c0 <readdir@plt>
 804b987:	83 c4 04             	add    $0x4,%esp
 804b98a:	85 c0                	test   %eax,%eax
 804b98c:	75 d9                	jne    804b967 <strcpy@plt+0x2f97>
 804b98e:	31 c0                	xor    %eax,%eax
 804b990:	8d 65 f4             	lea    -0xc(%ebp),%esp
 804b993:	5b                   	pop    %ebx
 804b994:	5e                   	pop    %esi
 804b995:	5f                   	pop    %edi
 804b996:	c9                   	leave
 804b997:	c3                   	ret
 804b998:	55                   	push   %ebp
 804b999:	89 e5                	mov    %esp,%ebp
 804b99b:	53                   	push   %ebx
 804b99c:	e8 00 00 00 00       	call   804b9a1 <strcpy@plt+0x2fd1>
 804b9a1:	5b                   	pop    %ebx
 804b9a2:	81 c3 bf 1c 00 00    	add    $0x1cbf,%ebx
 804b9a8:	8b 45 08             	mov    0x8(%ebp),%eax
 804b9ab:	85 c0                	test   %eax,%eax
 804b9ad:	74 0c                	je     804b9bb <strcpy@plt+0x2feb>
 804b9af:	8b 00                	mov    (%eax),%eax
 804b9b1:	85 c0                	test   %eax,%eax
 804b9b3:	74 06                	je     804b9bb <strcpy@plt+0x2feb>
 804b9b5:	50                   	push   %eax
 804b9b6:	e8 85 cf ff ff       	call   8048940 <closedir@plt>
 804b9bb:	8b 5d fc             	mov    -0x4(%ebp),%ebx
 804b9be:	c9                   	leave
 804b9bf:	c3                   	ret
 804b9c0:	55                   	push   %ebp
 804b9c1:	89 e5                	mov    %esp,%ebp
 804b9c3:	83 ec 5c             	sub    $0x5c,%esp
 804b9c6:	57                   	push   %edi
 804b9c7:	56                   	push   %esi
 804b9c8:	53                   	push   %ebx
 804b9c9:	e8 00 00 00 00       	call   804b9ce <strcpy@plt+0x2ffe>
 804b9ce:	5b                   	pop    %ebx
 804b9cf:	81 c3 92 1c 00 00    	add    $0x1c92,%ebx
 804b9d5:	8d 45 a8             	lea    -0x58(%ebp),%eax
 804b9d8:	50                   	push   %eax
 804b9d9:	8b 55 08             	mov    0x8(%ebp),%edx
 804b9dc:	52                   	push   %edx
 804b9dd:	6a 03                	push   $0x3
 804b9df:	e8 ac ce ff ff       	call   8048890 <__xstat@plt>
 804b9e4:	83 c4 0c             	add    $0xc,%esp
 804b9e7:	85 c0                	test   %eax,%eax
 804b9e9:	75 19                	jne    804ba04 <strcpy@plt+0x3034>
 804b9eb:	8b 45 b8             	mov    -0x48(%ebp),%eax
 804b9ee:	25 00 f0 00 00       	and    $0xf000,%eax
 804b9f3:	3d 00 40 00 00       	cmp    $0x4000,%eax
 804b9f8:	74 1f                	je     804ba19 <strcpy@plt+0x3049>
 804b9fa:	b8 11 00 00 00       	mov    $0x11,%eax
 804b9ff:	e9 7f 00 00 00       	jmp    804ba83 <strcpy@plt+0x30b3>
 804ba04:	68 ff 01 00 00       	push   $0x1ff
 804ba09:	8b 55 08             	mov    0x8(%ebp),%edx
 804ba0c:	52                   	push   %edx
 804ba0d:	e8 ce cd ff ff       	call   80487e0 <mkdir@plt>
 804ba12:	83 c4 08             	add    $0x8,%esp
 804ba15:	85 c0                	test   %eax,%eax
 804ba17:	75 07                	jne    804ba20 <strcpy@plt+0x3050>
 804ba19:	31 c0                	xor    %eax,%eax
 804ba1b:	eb 66                	jmp    804ba83 <strcpy@plt+0x30b3>
 804ba1d:	8d 76 00             	lea    0x0(%esi),%esi
 804ba20:	e8 0b ce ff ff       	call   8048830 <__errno_location@plt>
 804ba25:	89 45 a4             	mov    %eax,-0x5c(%ebp)
 804ba28:	8b 38                	mov    (%eax),%edi
 804ba2a:	83 ff 02             	cmp    $0x2,%edi
 804ba2d:	75 52                	jne    804ba81 <strcpy@plt+0x30b1>
 804ba2f:	8b 83 90 00 00 00    	mov    0x90(%ebx),%eax
 804ba35:	0f be 00             	movsbl (%eax),%eax
 804ba38:	50                   	push   %eax
 804ba39:	8b 55 08             	mov    0x8(%ebp),%edx
 804ba3c:	52                   	push   %edx
 804ba3d:	e8 de ce ff ff       	call   8048920 <strrchr@plt>
 804ba42:	89 c6                	mov    %eax,%esi
 804ba44:	83 c4 08             	add    $0x8,%esp
 804ba47:	85 f6                	test   %esi,%esi
 804ba49:	74 1b                	je     804ba66 <strcpy@plt+0x3096>
 804ba4b:	c6 06 00             	movb   $0x0,(%esi)
 804ba4e:	8b 55 08             	mov    0x8(%ebp),%edx
 804ba51:	52                   	push   %edx
 804ba52:	e8 69 ff ff ff       	call   804b9c0 <strcpy@plt+0x2ff0>
 804ba57:	89 c7                	mov    %eax,%edi
 804ba59:	8b 83 90 00 00 00    	mov    0x90(%ebx),%eax
 804ba5f:	8a 00                	mov    (%eax),%al
 804ba61:	88 06                	mov    %al,(%esi)
 804ba63:	83 c4 04             	add    $0x4,%esp
 804ba66:	85 ff                	test   %edi,%edi
 804ba68:	75 17                	jne    804ba81 <strcpy@plt+0x30b1>
 804ba6a:	68 ff 01 00 00       	push   $0x1ff
 804ba6f:	8b 55 08             	mov    0x8(%ebp),%edx
 804ba72:	52                   	push   %edx
 804ba73:	e8 68 cd ff ff       	call   80487e0 <mkdir@plt>
 804ba78:	85 c0                	test   %eax,%eax
 804ba7a:	74 05                	je     804ba81 <strcpy@plt+0x30b1>
 804ba7c:	8b 55 a4             	mov    -0x5c(%ebp),%edx
 804ba7f:	8b 3a                	mov    (%edx),%edi
 804ba81:	89 f8                	mov    %edi,%eax
 804ba83:	8d 65 98             	lea    -0x68(%ebp),%esp
 804ba86:	5b                   	pop    %ebx
 804ba87:	5e                   	pop    %esi
 804ba88:	5f                   	pop    %edi
 804ba89:	c9                   	leave
 804ba8a:	c3                   	ret
 804ba8b:	90                   	nop
 804ba8c:	90                   	nop
 804ba8d:	90                   	nop
 804ba8e:	90                   	nop
 804ba8f:	90                   	nop
 804ba90:	55                   	push   %ebp
 804ba91:	89 e5                	mov    %esp,%ebp
 804ba93:	83 ec 04             	sub    $0x4,%esp
 804ba96:	57                   	push   %edi
 804ba97:	56                   	push   %esi
 804ba98:	53                   	push   %ebx
 804ba99:	e8 00 00 00 00       	call   804ba9e <strcpy@plt+0x30ce>
 804ba9e:	5b                   	pop    %ebx
 804ba9f:	81 c3 c2 1b 00 00    	add    $0x1bc2,%ebx
 804baa5:	8b 7d 08             	mov    0x8(%ebp),%edi
 804baa8:	8b 75 0c             	mov    0xc(%ebp),%esi
 804baab:	90                   	nop
 804baac:	8d 74 26 00          	lea    0x0(%esi,%eiz,1),%esi
 804bab0:	80 3f 2a             	cmpb   $0x2a,(%edi)
 804bab3:	75 20                	jne    804bad5 <strcpy@plt+0x3105>
 804bab5:	47                   	inc    %edi
 804bab6:	8a 07                	mov    (%edi),%al
 804bab8:	3c 2a                	cmp    $0x2a,%al
 804baba:	74 f9                	je     804bab5 <strcpy@plt+0x30e5>
 804babc:	80 3e 00             	cmpb   $0x0,(%esi)
 804babf:	74 1b                	je     804badc <strcpy@plt+0x310c>
 804bac1:	56                   	push   %esi
 804bac2:	57                   	push   %edi
 804bac3:	e8 c8 ff ff ff       	call   804ba90 <strcpy@plt+0x30c0>
 804bac8:	83 c4 08             	add    $0x8,%esp
 804bacb:	85 c0                	test   %eax,%eax
 804bacd:	75 45                	jne    804bb14 <strcpy@plt+0x3144>
 804bacf:	46                   	inc    %esi
 804bad0:	80 3e 00             	cmpb   $0x0,(%esi)
 804bad3:	75 ec                	jne    804bac1 <strcpy@plt+0x30f1>
 804bad5:	8a 07                	mov    (%edi),%al
 804bad7:	80 3e 00             	cmpb   $0x0,(%esi)
 804bada:	75 0c                	jne    804bae8 <strcpy@plt+0x3118>
 804badc:	84 c0                	test   %al,%al
 804bade:	0f 94 c0             	sete   %al
 804bae1:	25 ff 00 00 00       	and    $0xff,%eax
 804bae6:	eb 31                	jmp    804bb19 <strcpy@plt+0x3149>
 804bae8:	3c 3f                	cmp    $0x3f,%al
 804baea:	74 24                	je     804bb10 <strcpy@plt+0x3140>
 804baec:	0f be 07             	movsbl (%edi),%eax
 804baef:	50                   	push   %eax
 804baf0:	e8 5b cd ff ff       	call   8048850 <tolower@plt>
 804baf5:	89 45 fc             	mov    %eax,-0x4(%ebp)
 804baf8:	0f be 06             	movsbl (%esi),%eax
 804bafb:	50                   	push   %eax
 804bafc:	e8 4f cd ff ff       	call   8048850 <tolower@plt>
 804bb01:	83 c4 08             	add    $0x8,%esp
 804bb04:	39 45 fc             	cmp    %eax,-0x4(%ebp)
 804bb07:	74 07                	je     804bb10 <strcpy@plt+0x3140>
 804bb09:	31 c0                	xor    %eax,%eax
 804bb0b:	eb 0c                	jmp    804bb19 <strcpy@plt+0x3149>
 804bb0d:	8d 76 00             	lea    0x0(%esi),%esi
 804bb10:	47                   	inc    %edi
 804bb11:	46                   	inc    %esi
 804bb12:	eb 9c                	jmp    804bab0 <strcpy@plt+0x30e0>
 804bb14:	b8 01 00 00 00       	mov    $0x1,%eax
 804bb19:	8d 65 f0             	lea    -0x10(%ebp),%esp
 804bb1c:	5b                   	pop    %ebx
 804bb1d:	5e                   	pop    %esi
 804bb1e:	5f                   	pop    %edi
 804bb1f:	c9                   	leave
 804bb20:	c3                   	ret
 804bb21:	90                   	nop
 804bb22:	90                   	nop
 804bb23:	90                   	nop
 804bb24:	90                   	nop
 804bb25:	90                   	nop
 804bb26:	90                   	nop
 804bb27:	90                   	nop
 804bb28:	90                   	nop
 804bb29:	90                   	nop
 804bb2a:	90                   	nop
 804bb2b:	90                   	nop
 804bb2c:	90                   	nop
 804bb2d:	90                   	nop
 804bb2e:	90                   	nop
 804bb2f:	90                   	nop
 804bb30:	55                   	push   %ebp
 804bb31:	89 e5                	mov    %esp,%ebp
 804bb33:	53                   	push   %ebx
 804bb34:	bb 50 d6 04 08       	mov    $0x804d650,%ebx
 804bb39:	83 3d 50 d6 04 08 ff 	cmpl   $0xffffffff,0x804d650
 804bb40:	74 0c                	je     804bb4e <strcpy@plt+0x317e>
 804bb42:	8b 03                	mov    (%ebx),%eax
 804bb44:	ff d0                	call   *%eax
 804bb46:	83 c3 fc             	add    $0xfffffffc,%ebx
 804bb49:	83 3b ff             	cmpl   $0xffffffff,(%ebx)
 804bb4c:	75 f4                	jne    804bb42 <strcpy@plt+0x3172>
 804bb4e:	8b 5d fc             	mov    -0x4(%ebp),%ebx
 804bb51:	c9                   	leave
 804bb52:	c3                   	ret
 804bb53:	90                   	nop
 804bb54:	55                   	push   %ebp
 804bb55:	89 e5                	mov    %esp,%ebp
 804bb57:	c9                   	leave
 804bb58:	c3                   	ret
 804bb59:	90                   	nop
 804bb5a:	90                   	nop
 804bb5b:	90                   	nop

Disassembly of section .fini:

0804bb5c <.fini>:
 804bb5c:	55                   	push   %ebp
 804bb5d:	89 e5                	mov    %esp,%ebp
 804bb5f:	53                   	push   %ebx
 804bb60:	e8 00 00 00 00       	call   804bb65 <strcpy@plt+0x3195>
 804bb65:	5b                   	pop    %ebx
 804bb66:	81 c3 fb 1a 00 00    	add    $0x1afb,%ebx
 804bb6c:	e8 9f ce ff ff       	call   8048a10 <strcpy@plt+0x40>
 804bb71:	8b 5d fc             	mov    -0x4(%ebp),%ebx
 804bb74:	c9                   	leave
 804bb75:	c3                   	ret

Disassembly of section .rodata:

0804bb80 <_IO_stdin_used@@Base-0x4>:
 804bb80:	03 00                	add    (%eax),%eax
	...

0804bb84 <_IO_stdin_used@@Base>:
 804bb84:	01 00                	add    %eax,(%eax)
 804bb86:	02 00                	add    (%eax),%al
	...
 804bba0:	3c 75                	cmp    $0x75,%al
 804bba2:	6e                   	outsb  %ds:(%esi),(%dx)
 804bba3:	73 65                	jae    804bc0a <_IO_stdin_used@@Base+0x86>
 804bba5:	74 20                	je     804bbc7 <_IO_stdin_used@@Base+0x43>
 804bba7:	64 61                	fs popa
 804bba9:	74 65                	je     804bc10 <_IO_stdin_used@@Base+0x8c>
 804bbab:	3e 00 41 4f          	add    %al,%ds:0x4f(%ecx)
 804bbaf:	46                   	inc    %esi
 804bbb0:	20 4c 69 62          	and    %cl,0x62(%ecx,%ebp,2)
 804bbb4:	72 61                	jb     804bc17 <_IO_stdin_used@@Base+0x93>
 804bbb6:	72 69                	jb     804bc21 <_IO_stdin_used@@Base+0x9d>
 804bbb8:	61                   	popa
 804bbb9:	6e                   	outsb  %ds:(%esi),(%dx)
 804bbba:	00 25 73 3a 20 00    	add    %ah,0x203a73
 804bbc0:	28 57 61             	sub    %dl,0x61(%edi)
 804bbc3:	72 6e                	jb     804bc33 <_IO_stdin_used@@Base+0xaf>
 804bbc5:	69 6e 67 29 20 00 28 	imul   $0x28002029,0x67(%esi),%ebp
 804bbcc:	45                   	inc    %ebp
 804bbcd:	72 72                	jb     804bc41 <_IO_stdin_used@@Base+0xbd>
 804bbcf:	6f                   	outsl  %ds:(%esi),(%dx)
 804bbd0:	72 29                	jb     804bbfb <_IO_stdin_used@@Base+0x77>
 804bbd2:	20 20                	and    %ah,(%eax)
 804bbd4:	20 00                	and    %al,(%eax)
 804bbd6:	28 46 61             	sub    %al,0x61(%esi)
 804bbd9:	74 61                	je     804bc3c <_IO_stdin_used@@Base+0xb8>
 804bbdb:	6c                   	insb   (%dx),%es:(%edi)
 804bbdc:	29 20                	sub    %esp,(%eax)
 804bbde:	20 20                	and    %ah,(%eax)
 804bbe0:	00 0a                	add    %cl,(%edx)
 804bbe2:	00 4d 65             	add    %cl,0x65(%ebp)
 804bbe5:	6d                   	insl   (%dx),%es:(%edi)
 804bbe6:	6f                   	outsl  %ds:(%esi),(%dx)
 804bbe7:	72 79                	jb     804bc62 <_IO_stdin_used@@Base+0xde>
 804bbe9:	20 72 65             	and    %dh,0x65(%edx)
 804bbec:	71 75                	jno    804bc63 <_IO_stdin_used@@Base+0xdf>
 804bbee:	65 73 74             	gs jae 804bc65 <_IO_stdin_used@@Base+0xe1>
 804bbf1:	20 25 75 20 74 6f    	and    %ah,0x6f742075
 804bbf7:	6f                   	outsl  %ds:(%esi),(%dx)
 804bbf8:	20 62 69             	and    %ah,0x69(%edx)
 804bbfb:	67 2e 00 00          	add    %al,%cs:(%bx,%si)
 804bbff:	00 5a 65             	add    %bl,0x65(%edx)
 804bc02:	72 6f                	jb     804bc73 <_IO_stdin_used@@Base+0xef>
 804bc04:	20 6f 72             	and    %ch,0x72(%edi)
 804bc07:	20 6e 65             	and    %ch,0x65(%esi)
 804bc0a:	67 61                	addr16 popa
 804bc0c:	74 69                	je     804bc77 <_IO_stdin_used@@Base+0xf3>
 804bc0e:	76 65                	jbe    804bc75 <_IO_stdin_used@@Base+0xf1>
 804bc10:	20 6d 65             	and    %ch,0x65(%ebp)
 804bc13:	6d                   	insl   (%dx),%es:(%edi)
 804bc14:	6f                   	outsl  %ds:(%esi),(%dx)
 804bc15:	72 79                	jb     804bc90 <_IO_stdin_used@@Base+0x10c>
 804bc17:	20 72 65             	and    %dh,0x65(%edx)
 804bc1a:	71 75                	jno    804bc91 <_IO_stdin_used@@Base+0x10d>
 804bc1c:	65 73 74             	gs jae 804bc93 <_IO_stdin_used@@Base+0x10f>
 804bc1f:	20 25 64 2e 00 4f    	and    %ah,0x4f002e64
 804bc25:	75 74                	jne    804bc9b <_IO_stdin_used@@Base+0x117>
 804bc27:	20 6f 66             	and    %ch,0x66(%edi)
 804bc2a:	20 6d 65             	and    %ch,0x65(%ebp)
 804bc2d:	6d                   	insl   (%dx),%es:(%edi)
 804bc2e:	6f                   	outsl  %ds:(%esi),(%dx)
 804bc2f:	72 79                	jb     804bcaa <_IO_stdin_used@@Base+0x126>
 804bc31:	2e 00 72 62          	add    %dh,%cs:0x62(%edx)
 804bc35:	00 55 6e             	add    %dl,0x6e(%ebp)
 804bc38:	61                   	popa
 804bc39:	62 6c 65 20          	bound  %ebp,0x20(%ebp,%eiz,2)
 804bc3d:	74 6f                	je     804bcae <_IO_stdin_used@@Base+0x12a>
 804bc3f:	20 6f 70             	and    %ch,0x70(%edi)
 804bc42:	65 6e                	outsb  %gs:(%esi),(%dx)
 804bc44:	20 6c 69 62          	and    %ch,0x62(%ecx,%ebp,2)
 804bc48:	72 61                	jb     804bcab <_IO_stdin_used@@Base+0x127>
 804bc4a:	72 79                	jb     804bcc5 <_IO_stdin_used@@Base+0x141>
 804bc4c:	20 25 73 2e 00 4c    	and    %ah,0x4c002e73
 804bc52:	49                   	dec    %ecx
 804bc53:	42                   	inc    %edx
 804bc54:	5f                   	pop    %edi
 804bc55:	44                   	inc    %esp
 804bc56:	49                   	dec    %ecx
 804bc57:	52                   	push   %edx
 804bc58:	59                   	pop    %ecx
 804bc59:	00 4f 46             	add    %cl,0x46(%edi)
 804bc5c:	4c                   	dec    %esp
 804bc5d:	5f                   	pop    %edi
 804bc5e:	53                   	push   %ebx
 804bc5f:	59                   	pop    %ecx
 804bc60:	4d                   	dec    %ebp
 804bc61:	54                   	push   %esp
 804bc62:	00 4c 49 42          	add    %cl,0x42(%ecx,%ecx,2)
 804bc66:	5f                   	pop    %edi
 804bc67:	56                   	push   %esi
 804bc68:	52                   	push   %edx
 804bc69:	53                   	push   %ebx
 804bc6a:	4e                   	dec    %esi
 804bc6b:	00 4c 49 42          	add    %cl,0x42(%ecx,%ecx,2)
 804bc6f:	5f                   	pop    %edi
 804bc70:	54                   	push   %esp
 804bc71:	49                   	dec    %ecx
 804bc72:	4d                   	dec    %ebp
 804bc73:	45                   	inc    %ebp
 804bc74:	00 4f 46             	add    %cl,0x46(%edi)
 804bc77:	4c                   	dec    %esp
 804bc78:	5f                   	pop    %edi
 804bc79:	54                   	push   %esp
 804bc7a:	49                   	dec    %ecx
 804bc7b:	4d                   	dec    %ebp
 804bc7c:	45                   	inc    %ebp
 804bc7d:	00 25 73 20 69 73    	add    %ah,0x73692073
 804bc83:	20 6e 6f             	and    %ch,0x6f(%esi)
 804bc86:	74 20                	je     804bca8 <_IO_stdin_used@@Base+0x124>
 804bc88:	61                   	popa
 804bc89:	20 6c 69 62          	and    %ch,0x62(%ecx,%ebp,2)
 804bc8d:	72 61                	jb     804bcf0 <_IO_stdin_used@@Base+0x16c>
 804bc8f:	72 79                	jb     804bd0a <_IO_stdin_used@@Base+0x186>
 804bc91:	20 66 69             	and    %ah,0x69(%esi)
 804bc94:	6c                   	insb   (%dx),%es:(%edi)
 804bc95:	65 2e 00 55 6e       	gs add %dl,%cs:0x6e(%ebp)
 804bc9a:	61                   	popa
 804bc9b:	62 6c 65 20          	bound  %ebp,0x20(%ebp,%eiz,2)
 804bc9f:	74 6f                	je     804bd10 <_IO_stdin_used@@Base+0x18c>
 804bca1:	20 72 65             	and    %dh,0x65(%edx)
 804bca4:	61                   	popa
 804bca5:	64 20 25 73 2e 00 44 	and    %ah,%fs:0x44002e73
 804bcac:	75 70                	jne    804bd1e <_IO_stdin_used@@Base+0x19a>
 804bcae:	6c                   	insb   (%dx),%es:(%edi)
 804bcaf:	69 63 61 74 65 20 6c 	imul   $0x6c206574,0x61(%ebx),%esp
 804bcb6:	69 62 72 61 72 79 20 	imul   $0x20797261,0x72(%edx),%esp
 804bcbd:	6d                   	insl   (%dx),%es:(%edi)
 804bcbe:	65 6d                	gs insl (%dx),%es:(%edi)
 804bcc0:	62 65 72             	bound  %esp,0x72(%ebp)
 804bcc3:	20 25 73 2e 00 4e    	and    %ah,0x4e002e73
 804bcc9:	6f                   	outsl  %ds:(%esi),(%dx)
 804bcca:	20 6d 61             	and    %ch,0x61(%ebp)
 804bccd:	74 63                	je     804bd32 <_IO_stdin_used@@Base+0x1ae>
 804bccf:	68 20 66 6f 72       	push   $0x726f6620
 804bcd4:	20 25 73 2e 00 6f    	and    %ah,0x6f002e73
 804bcda:	00 43 61             	add    %al,0x61(%ebx)
 804bcdd:	6e                   	outsb  %ds:(%esi),(%dx)
 804bcde:	27                   	daa
 804bcdf:	74 20                	je     804bd01 <_IO_stdin_used@@Base+0x17d>
 804bce1:	66 69 6e 64 20 66    	imul   $0x6620,0x64(%esi),%bp
 804bce7:	69 6c 65 20 25 73 2e 	imul   $0x2e7325,0x20(%ebp,%eiz,2),%ebp
 804bcee:	00 
 804bcef:	2f                   	das
 804bcf0:	77 62                	ja     804bd54 <_IO_stdin_used@@Base+0x1d0>
 804bcf2:	00 55 6e             	add    %dl,0x6e(%ebp)
 804bcf5:	61                   	popa
 804bcf6:	62 6c 65 20          	bound  %ebp,0x20(%ebp,%eiz,2)
 804bcfa:	74 6f                	je     804bd6b <_IO_stdin_used@@Base+0x1e7>
 804bcfc:	20 6f 70             	and    %ch,0x70(%edi)
 804bcff:	65 6e                	outsb  %gs:(%esi),(%dx)
 804bd01:	20 66 69             	and    %ah,0x69(%esi)
 804bd04:	6c                   	insb   (%dx),%es:(%edi)
 804bd05:	65 20 25 73 2e 00 55 	and    %ah,%gs:0x55002e73
 804bd0c:	6e                   	outsb  %ds:(%esi),(%dx)
 804bd0d:	61                   	popa
 804bd0e:	62 6c 65 20          	bound  %ebp,0x20(%ebp,%eiz,2)
 804bd12:	74 6f                	je     804bd83 <_IO_stdin_used@@Base+0x1ff>
 804bd14:	20 77 72             	and    %dh,0x72(%edi)
 804bd17:	69 74 65 20 66 69 6c 	imul   $0x656c6966,0x20(%ebp,%eiz,2),%esi
 804bd1e:	65 
 804bd1f:	20 25 73 2e 00 45    	and    %ah,0x45002e73
 804bd25:	72 72                	jb     804bd99 <_IO_stdin_used@@Base+0x215>
 804bd27:	6f                   	outsl  %ds:(%esi),(%dx)
 804bd28:	72 20                	jb     804bd4a <_IO_stdin_used@@Base+0x1c6>
 804bd2a:	77 72                	ja     804bd9e <_IO_stdin_used@@Base+0x21a>
 804bd2c:	69 74 69 6e 67 20 66 	imul   $0x69662067,0x6e(%ecx,%ebp,2),%esi
 804bd33:	69 
 804bd34:	6c                   	insb   (%dx),%es:(%edi)
 804bd35:	65 20 25 73 2e 00 5a 	and    %ah,%gs:0x5a002e73
 804bd3c:	65 72 6f             	gs jb  804bdae <_IO_stdin_used@@Base+0x22a>
 804bd3f:	2d 6c 65 6e 67       	sub    $0x676e656c,%eax
 804bd44:	74 68                	je     804bdae <_IO_stdin_used@@Base+0x22a>
 804bd46:	20 66 69             	and    %ah,0x69(%esi)
 804bd49:	6c                   	insb   (%dx),%es:(%edi)
 804bd4a:	65 3a 20             	cmp    %gs:(%eax),%ah
 804bd4d:	25 73 00 4c 49       	and    $0x494c0073,%eax
 804bd52:	42                   	inc    %edx
 804bd53:	5f                   	pop    %edi
 804bd54:	44                   	inc    %esp
 804bd55:	41                   	inc    %ecx
 804bd56:	54                   	push   %esp
 804bd57:	41                   	inc    %ecx
	...
 804bd60:	4c                   	dec    %esp
 804bd61:	69 62 72 61 72 79 20 	imul   $0x20797261,0x72(%edx),%esp
 804bd68:	6d                   	insl   (%dx),%es:(%edi)
 804bd69:	65 6d                	gs insl (%dx),%es:(%edi)
 804bd6b:	62 65 72             	bound  %esp,0x72(%ebp)
 804bd6e:	20 25 73 20 68 61    	and    %ah,0x61682073
 804bd74:	73 20                	jae    804bd96 <_IO_stdin_used@@Base+0x212>
 804bd76:	64 69 66 66 65 72 65 	imul   $0x6e657265,%fs:0x66(%esi),%esp
 804bd7d:	6e 
 804bd7e:	74 20                	je     804bda0 <_IO_stdin_used@@Base+0x21c>
 804bd80:	62 79 74             	bound  %edi,0x74(%ecx)
 804bd83:	65 73 65             	gs jae 804bdeb <_IO_stdin_used@@Base+0x267>
 804bd86:	78 2e                	js     804bdb6 <_IO_stdin_used@@Base+0x232>
	...
 804bda0:	4c                   	dec    %esp
 804bda1:	69 62 72 61 72 79 20 	imul   $0x20797261,0x72(%edx),%esp
 804bda8:	6d                   	insl   (%dx),%es:(%edi)
 804bda9:	65 6d                	gs insl (%dx),%es:(%edi)
 804bdab:	62 65 72             	bound  %esp,0x72(%ebp)
 804bdae:	20 25 73 20 69 73    	and    %ah,0x73692073
 804bdb4:	20 6e 6f             	and    %ch,0x6f(%esi)
 804bdb7:	74 20                	je     804bdd9 <_IO_stdin_used@@Base+0x255>
 804bdb9:	61                   	popa
 804bdba:	20 63 68             	and    %ah,0x68(%ebx)
 804bdbd:	75 6e                	jne    804be2d <_IO_stdin_used@@Base+0x2a9>
 804bdbf:	6b 20 66             	imul   $0x66,(%eax),%esp
 804bdc2:	69 6c 65 2e 00 4f 42 	imul   $0x4a424f00,0x2e(%ebp,%eiz,2),%ebp
 804bdc9:	4a 
 804bdca:	5f                   	pop    %edi
 804bdcb:	48                   	dec    %eax
 804bdcc:	45                   	inc    %ebp
 804bdcd:	41                   	inc    %ecx
 804bdce:	44                   	inc    %esp
 804bdcf:	00 42 61             	add    %al,0x61(%edx)
 804bdd2:	64 20 6c 69 62       	and    %ch,%fs:0x62(%ecx,%ebp,2)
 804bdd7:	72 61                	jb     804be3a <_IO_stdin_used@@Base+0x2b6>
 804bdd9:	72 79                	jb     804be54 <_IO_stdin_used@@Base+0x2d0>
 804bddb:	20 6d 65             	and    %ch,0x65(%ebp)
 804bdde:	6d                   	insl   (%dx),%es:(%edi)
 804bddf:	62 65 72             	bound  %esp,0x72(%ebp)
 804bde2:	20 25 73 2e 00 4f    	and    %ah,0x4f002e73
 804bde8:	42                   	inc    %edx
 804bde9:	4a                   	dec    %edx
 804bdea:	5f                   	pop    %edi
 804bdeb:	53                   	push   %ebx
 804bdec:	59                   	pop    %ecx
 804bded:	4d                   	dec    %ebp
 804bdee:	54                   	push   %esp
 804bdef:	00 4e 6f             	add    %cl,0x6f(%esi)
 804bdf2:	20 73 79             	and    %dh,0x79(%ebx)
 804bdf5:	6d                   	insl   (%dx),%es:(%edi)
 804bdf6:	62 6f 6c             	bound  %ebp,0x6c(%edi)
 804bdf9:	20 74 61 62          	and    %dh,0x62(%ecx,%eiz,2)
 804bdfd:	6c                   	insb   (%dx),%es:(%edi)
 804bdfe:	65 20 69 6e          	and    %ch,%gs:0x6e(%ecx)
 804be02:	20 25 73 2e 00 4f    	and    %ah,0x4f002e73
 804be08:	42                   	inc    %edx
 804be09:	4a                   	dec    %edx
 804be0a:	5f                   	pop    %edi
 804be0b:	53                   	push   %ebx
 804be0c:	54                   	push   %esp
 804be0d:	52                   	push   %edx
 804be0e:	54                   	push   %esp
 804be0f:	00 4e 6f             	add    %cl,0x6f(%esi)
 804be12:	20 73 74             	and    %dh,0x74(%ebx)
 804be15:	72 69                	jb     804be80 <_IO_stdin_used@@Base+0x2fc>
 804be17:	6e                   	outsb  %ds:(%esi),(%dx)
 804be18:	67 20 74 61          	and    %dh,0x61(%si)
 804be1c:	62 6c 65 20          	bound  %ebp,0x20(%ebp,%eiz,2)
 804be20:	69 6e 20 25 73 2e 00 	imul   $0x2e7325,0x20(%esi),%ebp
 804be27:	4e                   	dec    %esi
 804be28:	6f                   	outsl  %ds:(%esi),(%dx)
 804be29:	20 65 78             	and    %ah,0x78(%ebp)
 804be2c:	70 6f                	jo     804be9d <_IO_stdin_used@@Base+0x319>
 804be2e:	72 74                	jb     804bea4 <_IO_stdin_used@@Base+0x320>
 804be30:	65 64 20 73 79       	gs and %dh,%fs:0x79(%ebx)
 804be35:	6d                   	insl   (%dx),%es:(%edi)
 804be36:	62 6f 6c             	bound  %ebp,0x6c(%edi)
 804be39:	73 20                	jae    804be5b <_IO_stdin_used@@Base+0x2d7>
 804be3b:	69 6e 20 25 73 2e 00 	imul   $0x2e7325,0x20(%esi),%ebp
	...
 804be5e:	00 00                	add    %al,(%eax)
 804be60:	53                   	push   %ebx
 804be61:	79 6d                	jns    804bed0 <_IO_stdin_used@@Base+0x34c>
 804be63:	62 6f 6c             	bound  %ebp,0x6c(%edi)
 804be66:	20 74 61 62          	and    %dh,0x62(%ecx,%eiz,2)
 804be6a:	6c                   	insb   (%dx),%es:(%edi)
 804be6b:	65 20 28             	and    %ch,%gs:(%eax)
 804be6e:	73 69                	jae    804bed9 <_IO_stdin_used@@Base+0x355>
 804be70:	7a 65                	jp     804bed7 <_IO_stdin_used@@Base+0x353>
 804be72:	20 25 6c 75 29 20    	and    %ah,0x2029756c
 804be78:	74 6f                	je     804bee9 <_IO_stdin_used@@Base+0x365>
 804be7a:	6f                   	outsl  %ds:(%esi),(%dx)
 804be7b:	20 62 69             	and    %ah,0x69(%edx)
 804be7e:	67 20 69 6e          	and    %ch,0x6e(%bx,%di)
 804be82:	20 25 73 2e 00 00    	and    %ah,0x2e73
	...
 804bea0:	0a 46 6f             	or     0x6f(%esi),%al
 804bea3:	72 6d                	jb     804bf12 <_IO_stdin_used@@Base+0x38e>
 804bea5:	61                   	popa
 804bea6:	74 20                	je     804bec8 <_IO_stdin_used@@Base+0x344>
 804bea8:	76 65                	jbe    804bf0f <_IO_stdin_used@@Base+0x38b>
 804beaa:	72 73                	jb     804bf1f <_IO_stdin_used@@Base+0x39b>
 804beac:	69 6f 6e 3a 20 28 6e 	imul   $0x6e28203a,0x6e(%edi),%ebp
 804beb3:	6f                   	outsl  %ds:(%esi),(%dx)
 804beb4:	20 76 65             	and    %dh,0x65(%esi)
 804beb7:	72 73                	jb     804bf2c <_IO_stdin_used@@Base+0x3a8>
 804beb9:	69 6f 6e 20 6e 75 6d 	imul   $0x6d756e20,0x6e(%edi),%ebp
 804bec0:	62 65 72             	bound  %esp,0x72(%ebp)
 804bec3:	29 0a                	sub    %ecx,(%edx)
 804bec5:	00 0a                	add    %cl,(%edx)
 804bec7:	46                   	inc    %esi
 804bec8:	6f                   	outsl  %ds:(%esi),(%dx)
 804bec9:	72 6d                	jb     804bf38 <_IO_stdin_used@@Base+0x3b4>
 804becb:	61                   	popa
 804becc:	74 20                	je     804beee <_IO_stdin_used@@Base+0x36a>
 804bece:	76 65                	jbe    804bf35 <_IO_stdin_used@@Base+0x3b1>
 804bed0:	72 73                	jb     804bf45 <_IO_stdin_used@@Base+0x3c1>
 804bed2:	69 6f 6e 3a 20 25 64 	imul   $0x6425203a,0x6e(%edi),%ebp
 804bed9:	0a 00                	or     (%eax),%al
 804bedb:	4c                   	dec    %esp
 804bedc:	61                   	popa
 804bedd:	73 74                	jae    804bf53 <_IO_stdin_used@@Base+0x3cf>
 804bedf:	20 4d 6f             	and    %cl,0x6f(%ebp)
 804bee2:	64 69 66 69 63 61 74 	imul   $0x69746163,%fs:0x69(%esi),%esp
 804bee9:	69 
 804beea:	6f                   	outsl  %ds:(%esi),(%dx)
 804beeb:	6e                   	outsb  %ds:(%esi),(%dx)
 804beec:	3a 20                	cmp    (%eax),%ah
 804beee:	25 73 0a 00 0a       	and    $0xa000a73,%eax
 804bef3:	43                   	inc    %ebx
 804bef4:	6f                   	outsl  %ds:(%esi),(%dx)
 804bef5:	6e                   	outsb  %ds:(%esi),(%dx)
 804bef6:	74 65                	je     804bf5d <_IO_stdin_used@@Base+0x3d9>
 804bef8:	6e                   	outsb  %ds:(%esi),(%dx)
 804bef9:	74 73                	je     804bf6e <_IO_stdin_used@@Base+0x3ea>
 804befb:	3a 0a                	cmp    (%edx),%cl
 804befd:	0a 00                	or     (%eax),%al
 804beff:	20 20                	and    %ah,(%eax)
 804bf01:	25 2d 34 30 73       	and    $0x7330342d,%eax
 804bf06:	20 25 31 30 64 20    	and    %ah,0x20643031
 804bf0c:	20 20                	and    %ah,(%eax)
 804bf0e:	25 73 0a 00 0a       	and    $0xa000a73,%eax
 804bf13:	45                   	inc    %ebp
 804bf14:	6e                   	outsb  %ds:(%esi),(%dx)
 804bf15:	64 20 6f 66          	and    %ch,%fs:0x66(%edi)
 804bf19:	20 4c 69 62          	and    %cl,0x62(%ecx,%ebp,2)
 804bf1d:	72 61                	jb     804bf80 <_IO_stdin_used@@Base+0x3fc>
 804bf1f:	72 79                	jb     804bf9a <_IO_stdin_used@@Base+0x416>
 804bf21:	0a 00                	or     (%eax),%al
 804bf23:	4e                   	dec    %esi
 804bf24:	6f                   	outsl  %ds:(%esi),(%dx)
 804bf25:	20 65 78             	and    %ah,0x78(%ebp)
 804bf28:	74 65                	je     804bf8f <_IO_stdin_used@@Base+0x40b>
 804bf2a:	72 6e                	jb     804bf9a <_IO_stdin_used@@Base+0x416>
 804bf2c:	61                   	popa
 804bf2d:	6c                   	insb   (%dx),%es:(%edi)
 804bf2e:	20 73 79             	and    %dh,0x79(%ebx)
 804bf31:	6d                   	insl   (%dx),%es:(%edi)
 804bf32:	62 6f 6c             	bound  %ebp,0x6c(%edi)
 804bf35:	20 74 61 62          	and    %dh,0x62(%ecx,%eiz,2)
 804bf39:	6c                   	insb   (%dx),%es:(%edi)
 804bf3a:	65 2e 00 00          	gs add %al,%cs:(%eax)
 804bf3e:	00 00                	add    %al,(%eax)
 804bf40:	45                   	inc    %ebp
 804bf41:	78 74                	js     804bfb7 <_IO_stdin_used@@Base+0x433>
 804bf43:	65 72 6e             	gs jb  804bfb4 <_IO_stdin_used@@Base+0x430>
 804bf46:	61                   	popa
 804bf47:	6c                   	insb   (%dx),%es:(%edi)
 804bf48:	20 53 79             	and    %dl,0x79(%ebx)
 804bf4b:	6d                   	insl   (%dx),%es:(%edi)
 804bf4c:	62 6f 6c             	bound  %ebp,0x6c(%edi)
 804bf4f:	20 54 61 62          	and    %dl,0x62(%ecx,%eiz,2)
 804bf53:	6c                   	insb   (%dx),%es:(%edi)
 804bf54:	65 2c 20             	gs sub $0x20,%al
 804bf57:	67 65 6e             	outsb  %gs:(%si),(%dx)
 804bf5a:	65 72 61             	gs jb  804bfbe <_IO_stdin_used@@Base+0x43a>
 804bf5d:	74 65                	je     804bfc4 <_IO_stdin_used@@Base+0x440>
 804bf5f:	64 3a 20             	cmp    %fs:(%eax),%ah
 804bf62:	25 73 0a 0a 00       	and    $0xa0a73,%eax
 804bf67:	20 20                	and    %ah,(%eax)
 804bf69:	25 2d 34 30 73       	and    $0x7330342d,%eax
 804bf6e:	20 66 72             	and    %ah,0x72(%esi)
 804bf71:	6f                   	outsl  %ds:(%esi),(%dx)
 804bf72:	6d                   	insl   (%dx),%es:(%edi)
 804bf73:	20 20                	and    %ah,(%eax)
 804bf75:	20 25 73 0a 00 0a    	and    %ah,0xa000a73
 804bf7b:	45                   	inc    %ebp
 804bf7c:	6e                   	outsb  %ds:(%esi),(%dx)
 804bf7d:	64 20 6f 66          	and    %ch,%fs:0x66(%edi)
 804bf81:	20 54 61 62          	and    %dl,0x62(%ecx,%eiz,2)
 804bf85:	6c                   	insb   (%dx),%es:(%edi)
 804bf86:	65 0a 00             	or     %gs:(%eax),%al
 804bf89:	42                   	inc    %edx
 804bf8a:	75 69                	jne    804bff5 <_IO_stdin_used@@Base+0x471>
 804bf8c:	6c                   	insb   (%dx),%es:(%edi)
 804bf8d:	64 20 6e 75          	and    %ch,%fs:0x75(%esi)
 804bf91:	6d                   	insl   (%dx),%es:(%edi)
 804bf92:	62 65 72             	bound  %esp,0x72(%ebp)
 804bf95:	20 31                	and    %dh,(%ecx)
 804bf97:	33 30                	xor    (%eax),%esi
 804bf99:	00 34 2e             	add    %dh,(%esi,%ebp,1)
 804bf9c:	35 30 20 28 41       	xor    $0x41282030,%eax
 804bfa1:	52                   	push   %edx
 804bfa2:	4d                   	dec    %ebp
 804bfa3:	20 4c 74 64          	and    %cl,0x64(%esp,%esi,2)
 804bfa7:	20 53 44             	and    %dl,0x44(%ebx)
 804bfaa:	54                   	push   %esp
 804bfab:	32 2e                	xor    (%esi),%ch
 804bfad:	35 31 29 00 00       	xor    $0x2931,%eax
	...
 804bfbe:	00 00                	add    %al,(%eax)
 804bfc0:	25 73 20 76 65       	and    $0x65762073,%eax
 804bfc5:	72 73                	jb     804c03a <_IO_stdin_used@@Base+0x4b6>
 804bfc7:	69 6f 6e 20 25 73 20 	imul   $0x20732520,0x6e(%edi),%ebp
 804bfce:	5b                   	pop    %ebx
 804bfcf:	25 73 5d 0a 20       	and    $0x200a5d73,%eax
 804bfd4:	20 20                	and    %ah,(%eax)
 804bfd6:	20 20                	and    %ah,(%eax)
 804bfd8:	20 20                	and    %ah,(%eax)
 804bfda:	2d 20 41 4f 46       	sub    $0x464f4120,%eax
 804bfdf:	20 6c 69 62          	and    %ch,0x62(%ecx,%ebp,2)
 804bfe3:	72 61                	jb     804c046 <_IO_stdin_used@@Base+0x4c2>
 804bfe5:	72 79                	jb     804c060 <_IO_stdin_used@@Base+0x4dc>
 804bfe7:	20 63 72             	and    %ah,0x72(%ebx)
 804bfea:	65 61                	gs popa
 804bfec:	74 69                	je     804c057 <_IO_stdin_used@@Base+0x4d3>
 804bfee:	6f                   	outsl  %ds:(%esi),(%dx)
 804bfef:	6e                   	outsb  %ds:(%esi),(%dx)
 804bff0:	20 61 6e             	and    %ah,0x6e(%ecx)
 804bff3:	64 20 6d 61          	and    %ch,%fs:0x61(%ebp)
 804bff7:	69 6e 74 65 6e 61 6e 	imul   $0x6e616e65,0x74(%esi),%ebp
 804bffe:	63 65 20             	arpl   %esp,0x20(%ebp)
 804c001:	74 6f                	je     804c072 <_IO_stdin_used@@Base+0x4ee>
 804c003:	6f                   	outsl  %ds:(%esi),(%dx)
 804c004:	6c                   	insb   (%dx),%es:(%edi)
 804c005:	0a 0a                	or     (%edx),%cl
 804c007:	43                   	inc    %ebx
 804c008:	6f                   	outsl  %ds:(%esi),(%dx)
 804c009:	6d                   	insl   (%dx),%es:(%edi)
 804c00a:	6d                   	insl   (%dx),%es:(%edi)
 804c00b:	61                   	popa
 804c00c:	6e                   	outsb  %ds:(%esi),(%dx)
 804c00d:	64 20 66 6f          	and    %ah,%fs:0x6f(%esi)
 804c011:	72 6d                	jb     804c080 <_IO_stdin_used@@Base+0x4fc>
 804c013:	61                   	popa
 804c014:	74 3a                	je     804c050 <_IO_stdin_used@@Base+0x4cc>
 804c016:	0a 0a                	or     (%edx),%cl
 804c018:	25 73 20 6f 70       	and    $0x706f2073,%eax
 804c01d:	74 69                	je     804c088 <_IO_stdin_used@@Base+0x504>
 804c01f:	6f                   	outsl  %ds:(%esi),(%dx)
 804c020:	6e                   	outsb  %ds:(%esi),(%dx)
 804c021:	73 20                	jae    804c043 <_IO_stdin_used@@Base+0x4bf>
 804c023:	6c                   	insb   (%dx),%es:(%edi)
 804c024:	69 62 72 61 72 79 20 	imul   $0x20797261,0x72(%edx),%esp
 804c02b:	5b                   	pop    %ebx
 804c02c:	20 66 69             	and    %ah,0x69(%esi)
 804c02f:	6c                   	insb   (%dx),%es:(%edi)
 804c030:	65 5f                	gs pop %edi
 804c032:	6c                   	insb   (%dx),%es:(%edi)
 804c033:	69 73 74 20 7c 20 6d 	imul   $0x6d207c20,0x74(%ebx),%esi
 804c03a:	65 6d                	gs insl (%dx),%es:(%edi)
 804c03c:	62 65 72             	bound  %esp,0x72(%ebp)
 804c03f:	5f                   	pop    %edi
 804c040:	6c                   	insb   (%dx),%es:(%edi)
 804c041:	69 73 74 20 5d 0a 0a 	imul   $0xa0a5d20,0x74(%ebx),%esi
	...
 804c060:	57                   	push   %edi
 804c061:	69 6c 64 63 61 72 64 	imul   $0x73647261,0x63(%esp,%eiz,2),%ebp
 804c068:	73 
 804c069:	20 27                	and    %ah,(%edi)
 804c06b:	25 63 27 20 61       	and    $0x61202763,%eax
 804c070:	6e                   	outsb  %ds:(%esi),(%dx)
 804c071:	64 20 27             	and    %ah,%fs:(%edi)
 804c074:	2a 27                	sub    (%edi),%ah
 804c076:	20 6d 61             	and    %ch,0x61(%ebp)
 804c079:	79 20                	jns    804c09b <_IO_stdin_used@@Base+0x517>
 804c07b:	62 65 20             	bound  %esp,0x20(%ebp)
 804c07e:	75 73                	jne    804c0f3 <_IO_stdin_used@@Base+0x56f>
 804c080:	65 64 20 69 6e       	gs and %ch,%fs:0x6e(%ecx)
 804c085:	20 3c 6d 65 6d 62 65 	and    %bh,0x65626d65(,%ebp,2)
 804c08c:	72 5f                	jb     804c0ed <_IO_stdin_used@@Base+0x569>
 804c08e:	6c                   	insb   (%dx),%es:(%edi)
 804c08f:	69 73 74 3e 0a 0a 00 	imul   $0xa0a3e,0x74(%ebx),%esi
	...
 804c09e:	00 00                	add    %al,(%eax)
 804c0a0:	4f                   	dec    %edi
 804c0a1:	70 74                	jo     804c117 <_IO_stdin_used@@Base+0x593>
 804c0a3:	69 6f 6e 73 3a 2d 0a 	imul   $0xa2d3a73,0x6e(%edi),%ebp
 804c0aa:	0a 2d 63 20 20 20    	or     0x20202063,%ch
 804c0b0:	20 20                	and    %ah,(%eax)
 804c0b2:	20 43 72             	and    %al,0x72(%ebx)
 804c0b5:	65 61                	gs popa
 804c0b7:	74 65                	je     804c11e <_IO_stdin_used@@Base+0x59a>
 804c0b9:	20 61 20             	and    %ah,0x20(%ecx)
 804c0bc:	6e                   	outsb  %ds:(%esi),(%dx)
 804c0bd:	65 77 20             	gs ja  804c0e0 <_IO_stdin_used@@Base+0x55c>
 804c0c0:	6c                   	insb   (%dx),%es:(%edi)
 804c0c1:	69 62 72 61 72 79 20 	imul   $0x20797261,0x72(%edx),%esp
 804c0c8:	63 6f 6e             	arpl   %ebp,0x6e(%edi)
 804c0cb:	74 61                	je     804c12e <_IO_stdin_used@@Base+0x5aa>
 804c0cd:	69 6e 69 6e 67 20 66 	imul   $0x6620676e,0x69(%esi),%ebp
 804c0d4:	69 6c 65 73 20 69 6e 	imul   $0x206e6920,0x73(%ebp,%eiz,2),%ebp
 804c0db:	20 
 804c0dc:	3c 66                	cmp    $0x66,%al
 804c0de:	69 6c 65 5f 6c 69 73 	imul   $0x7473696c,0x5f(%ebp,%eiz,2),%ebp
 804c0e5:	74 
 804c0e6:	3e 2e 0a 2d 69 20 20 	ds or  %cs:0x20202069,%ch
 804c0ed:	20 
 804c0ee:	20 20                	and    %ah,(%eax)
 804c0f0:	20 49 6e             	and    %cl,0x6e(%ecx)
 804c0f3:	73 65                	jae    804c15a <_IO_stdin_used@@Base+0x5d6>
 804c0f5:	72 74                	jb     804c16b <_IO_stdin_used@@Base+0x5e7>
 804c0f7:	20 66 69             	and    %ah,0x69(%esi)
 804c0fa:	6c                   	insb   (%dx),%es:(%edi)
 804c0fb:	65 73 20             	gs jae 804c11e <_IO_stdin_used@@Base+0x59a>
 804c0fe:	69 6e 20 3c 66 69 6c 	imul   $0x6c69663c,0x20(%esi),%ebp
 804c105:	65 5f                	gs pop %edi
 804c107:	6c                   	insb   (%dx),%es:(%edi)
 804c108:	69 73 74 3e 2c 20 72 	imul   $0x72202c3e,0x74(%ebx),%esi
 804c10f:	65 70 6c             	gs jo  804c17e <_IO_stdin_used@@Base+0x5fa>
 804c112:	61                   	popa
 804c113:	63 65 20             	arpl   %esp,0x20(%ebp)
 804c116:	65 78 69             	gs js  804c182 <_IO_stdin_used@@Base+0x5fe>
 804c119:	73 74                	jae    804c18f <_IO_stdin_used@@Base+0x60b>
 804c11b:	69 6e 67 20 6d 65 6d 	imul   $0x6d656d20,0x67(%esi),%ebp
 804c122:	62 65 72             	bound  %esp,0x72(%ebp)
 804c125:	73 20                	jae    804c147 <_IO_stdin_used@@Base+0x5c3>
 804c127:	6f                   	outsl  %ds:(%esi),(%dx)
 804c128:	66 20 74 68 65       	data16 and %dh,0x65(%eax,%ebp,2)
 804c12d:	20 73 61             	and    %dh,0x61(%ebx)
 804c130:	6d                   	insl   (%dx),%es:(%edi)
 804c131:	65 20 6e 61          	and    %ch,%gs:0x61(%esi)
 804c135:	6d                   	insl   (%dx),%es:(%edi)
 804c136:	65 2e 0a 2d 64 20 20 	gs or  %cs:0x20202064,%ch
 804c13d:	20 
 804c13e:	20 20                	and    %ah,(%eax)
 804c140:	20 44 65 6c          	and    %al,0x6c(%ebp,%eiz,2)
 804c144:	65 74 65             	gs je  804c1ac <_IO_stdin_used@@Base+0x628>
 804c147:	20 74 68 65          	and    %dh,0x65(%eax,%ebp,2)
 804c14b:	20 6d 65             	and    %ch,0x65(%ebp)
 804c14e:	6d                   	insl   (%dx),%es:(%edi)
 804c14f:	62 65 72             	bound  %esp,0x72(%ebp)
 804c152:	73 20                	jae    804c174 <_IO_stdin_used@@Base+0x5f0>
 804c154:	69 6e 20 3c 6d 65 6d 	imul   $0x6d656d3c,0x20(%esi),%ebp
 804c15b:	62 65 72             	bound  %esp,0x72(%ebp)
 804c15e:	5f                   	pop    %edi
 804c15f:	6c                   	insb   (%dx),%es:(%edi)
 804c160:	69 73 74 3e 2e 0a 2d 	imul   $0x2d0a2e3e,0x74(%ebx),%esi
 804c167:	65 20 20             	and    %ah,%gs:(%eax)
 804c16a:	20 20                	and    %ah,(%eax)
 804c16c:	20 20                	and    %ah,(%eax)
 804c16e:	45                   	inc    %ebp
 804c16f:	78 74                	js     804c1e5 <_IO_stdin_used@@Base+0x661>
 804c171:	72 61                	jb     804c1d4 <_IO_stdin_used@@Base+0x650>
 804c173:	63 74 20 6d          	arpl   %esi,0x6d(%eax,%eiz,1)
 804c177:	65 6d                	gs insl (%dx),%es:(%edi)
 804c179:	62 65 72             	bound  %esp,0x72(%ebp)
 804c17c:	73 20                	jae    804c19e <_IO_stdin_used@@Base+0x61a>
 804c17e:	69 6e 20 3c 6d 65 6d 	imul   $0x6d656d3c,0x20(%esi),%ebp
 804c185:	62 65 72             	bound  %esp,0x72(%ebp)
 804c188:	5f                   	pop    %edi
 804c189:	6c                   	insb   (%dx),%es:(%edi)
 804c18a:	69 73 74 3e 20 70 6c 	imul   $0x6c70203e,0x74(%ebx),%esi
 804c191:	61                   	popa
 804c192:	63 69 6e             	arpl   %ebp,0x6e(%ecx)
 804c195:	67 20 69 6e          	and    %ch,0x6e(%bx,%di)
 804c199:	20 66 69             	and    %ah,0x69(%esi)
 804c19c:	6c                   	insb   (%dx),%es:(%edi)
 804c19d:	65 73 20             	gs jae 804c1c0 <_IO_stdin_used@@Base+0x63c>
 804c1a0:	6f                   	outsl  %ds:(%esi),(%dx)
 804c1a1:	66 20 74 68 65       	data16 and %dh,0x65(%eax,%ebp,2)
 804c1a6:	20 73 61             	and    %dh,0x61(%ebx)
 804c1a9:	6d                   	insl   (%dx),%es:(%edi)
 804c1aa:	65 20 6e 61          	and    %ch,%gs:0x61(%esi)
 804c1ae:	6d                   	insl   (%dx),%es:(%edi)
 804c1af:	65 2e 0a 00          	gs or  %cs:(%eax),%al
	...
 804c1bf:	00 2d 6f 20 20 20    	add    %ch,0x2020206f
 804c1c5:	20 20                	and    %ah,(%eax)
 804c1c7:	20 41 64             	and    %al,0x64(%ecx)
 804c1ca:	64 20 61 6e          	and    %ah,%fs:0x6e(%ecx)
 804c1ce:	20 65 78             	and    %ah,0x78(%ebp)
 804c1d1:	74 65                	je     804c238 <_IO_stdin_used@@Base+0x6b4>
 804c1d3:	72 6e                	jb     804c243 <_IO_stdin_used@@Base+0x6bf>
 804c1d5:	61                   	popa
 804c1d6:	6c                   	insb   (%dx),%es:(%edi)
 804c1d7:	20 73 79             	and    %dh,0x79(%ebx)
 804c1da:	6d                   	insl   (%dx),%es:(%edi)
 804c1db:	62 6f 6c             	bound  %ebp,0x6c(%edi)
 804c1de:	20 74 61 62          	and    %dh,0x62(%ecx,%eiz,2)
 804c1e2:	6c                   	insb   (%dx),%es:(%edi)
 804c1e3:	65 20 74 6f 20       	and    %dh,%gs:0x20(%edi,%ebp,2)
 804c1e8:	61                   	popa
 804c1e9:	6e                   	outsb  %ds:(%esi),(%dx)
 804c1ea:	20 6f 62             	and    %ch,0x62(%edi)
 804c1ed:	6a 65                	push   $0x65
 804c1ef:	63 74 20 6c          	arpl   %esi,0x6c(%eax,%eiz,1)
 804c1f3:	69 62 72 61 72 79 20 	imul   $0x20797261,0x72(%edx),%esp
 804c1fa:	28 44 45 46          	sub    %al,0x46(%ebp,%eax,2)
 804c1fe:	41                   	inc    %ecx
 804c1ff:	55                   	push   %ebp
 804c200:	4c                   	dec    %esp
 804c201:	54                   	push   %esp
 804c202:	29 2e                	sub    %ebp,(%esi)
 804c204:	0a 2d 6e 20 20 20    	or     0x2020206e,%ch
 804c20a:	20 20                	and    %ah,(%eax)
 804c20c:	20 44 6f 20          	and    %al,0x20(%edi,%ebp,2)
 804c210:	6e                   	outsb  %ds:(%esi),(%dx)
 804c211:	6f                   	outsl  %ds:(%esi),(%dx)
 804c212:	74 20                	je     804c234 <_IO_stdin_used@@Base+0x6b0>
 804c214:	61                   	popa
 804c215:	64 64 20 61 6e       	fs and %ah,%fs:0x6e(%ecx)
 804c21a:	20 65 78             	and    %ah,0x78(%ebp)
 804c21d:	74 65                	je     804c284 <_IO_stdin_used@@Base+0x700>
 804c21f:	72 6e                	jb     804c28f <_IO_stdin_used@@Base+0x70b>
 804c221:	61                   	popa
 804c222:	6c                   	insb   (%dx),%es:(%edi)
 804c223:	20 73 79             	and    %dh,0x79(%ebx)
 804c226:	6d                   	insl   (%dx),%es:(%edi)
 804c227:	62 6f 6c             	bound  %ebp,0x6c(%edi)
 804c22a:	20 74 61 62          	and    %dh,0x62(%ecx,%eiz,2)
 804c22e:	6c                   	insb   (%dx),%es:(%edi)
 804c22f:	65 20 74 6f 20       	and    %dh,%gs:0x20(%edi,%ebp,2)
 804c234:	61                   	popa
 804c235:	6e                   	outsb  %ds:(%esi),(%dx)
 804c236:	20 6f 62             	and    %ch,0x62(%edi)
 804c239:	6a 65                	push   $0x65
 804c23b:	63 74 20 6c          	arpl   %esi,0x6c(%eax,%eiz,1)
 804c23f:	69 62 72 61 72 79 2e 	imul   $0x2e797261,0x72(%edx),%esp
 804c246:	0a 2d 70 20 20 20    	or     0x20202070,%ch
 804c24c:	20 20                	and    %ah,(%eax)
 804c24e:	20 52 65             	and    %dl,0x65(%edx)
 804c251:	73 70                	jae    804c2c3 <_IO_stdin_used@@Base+0x73f>
 804c253:	65 63 74 20 70       	arpl   %esi,%gs:0x70(%eax,%eiz,1)
 804c258:	61                   	popa
 804c259:	74 68                	je     804c2c3 <_IO_stdin_used@@Base+0x73f>
 804c25b:	73 20                	jae    804c27d <_IO_stdin_used@@Base+0x6f9>
 804c25d:	6f                   	outsl  %ds:(%esi),(%dx)
 804c25e:	66 20 66 69          	data16 and %ah,0x69(%esi)
 804c262:	6c                   	insb   (%dx),%es:(%edi)
 804c263:	65 73 20             	gs jae 804c286 <_IO_stdin_used@@Base+0x702>
 804c266:	61                   	popa
 804c267:	6e                   	outsb  %ds:(%esi),(%dx)
 804c268:	64 20 6f 62          	and    %ch,%fs:0x62(%edi)
 804c26c:	6a 65                	push   $0x65
 804c26e:	63 74 73 2e          	arpl   %esi,0x2e(%ebx,%esi,2)
 804c272:	0a 2d 6c 20 20 20    	or     0x2020206c,%ch
 804c278:	20 20                	and    %ah,(%eax)
 804c27a:	20 4c 69 73          	and    %cl,0x73(%ecx,%ebp,2)
 804c27e:	74 20                	je     804c2a0 <_IO_stdin_used@@Base+0x71c>
 804c280:	6c                   	insb   (%dx),%es:(%edi)
 804c281:	69 62 72 61 72 79 2c 	imul   $0x2c797261,0x72(%edx),%esp
 804c288:	20 6d 61             	and    %ch,0x61(%ebp)
 804c28b:	79 20                	jns    804c2ad <_IO_stdin_used@@Base+0x729>
 804c28d:	62 65 20             	bound  %esp,0x20(%ebp)
 804c290:	73 70                	jae    804c302 <_IO_stdin_used@@Base+0x77e>
 804c292:	65 63 69 66          	arpl   %ebp,%gs:0x66(%ecx)
 804c296:	69 65 64 20 77 69 74 	imul   $0x74697720,0x64(%ebp),%esp
 804c29d:	68 20 61 6e 79       	push   $0x796e6120
 804c2a2:	20 6f 74             	and    %ch,0x74(%edi)
 804c2a5:	68 65 72 20 6f       	push   $0x6f207265
 804c2aa:	70 74                	jo     804c320 <_IO_stdin_used@@Base+0x79c>
 804c2ac:	69 6f 6e 2e 0a 2d 73 	imul   $0x732d0a2e,0x6e(%edi),%ebp
 804c2b3:	20 20                	and    %ah,(%eax)
 804c2b5:	20 20                	and    %ah,(%eax)
 804c2b7:	20 20                	and    %ah,(%eax)
 804c2b9:	4c                   	dec    %esp
 804c2ba:	69 73 74 20 73 79 6d 	imul   $0x6d797320,0x74(%ebx),%esi
 804c2c1:	62 6f 6c             	bound  %ebp,0x6c(%edi)
 804c2c4:	20 74 61 62          	and    %dh,0x62(%ecx,%eiz,2)
 804c2c8:	6c                   	insb   (%dx),%es:(%edi)
 804c2c9:	65 2c 20             	gs sub $0x20,%al
 804c2cc:	6d                   	insl   (%dx),%es:(%edi)
 804c2cd:	61                   	popa
 804c2ce:	79 20                	jns    804c2f0 <_IO_stdin_used@@Base+0x76c>
 804c2d0:	62 65 20             	bound  %esp,0x20(%ebp)
 804c2d3:	73 70                	jae    804c345 <_IO_stdin_used@@Base+0x7c1>
 804c2d5:	65 63 69 66          	arpl   %ebp,%gs:0x66(%ecx)
 804c2d9:	69 65 64 20 77 69 74 	imul   $0x74697720,0x64(%ebp),%esp
 804c2e0:	68 20 61 6e 79       	push   $0x796e6120
 804c2e5:	20 6f 74             	and    %ch,0x74(%edi)
 804c2e8:	68 65 72 20 6f       	push   $0x6f207265
 804c2ed:	70 74                	jo     804c363 <_IO_stdin_used@@Base+0x7df>
 804c2ef:	69 6f 6e 2e 0a 2d 74 	imul   $0x742d0a2e,0x6e(%edi),%ebp
 804c2f6:	20 64 69 72          	and    %ah,0x72(%ecx,%ebp,2)
 804c2fa:	20 20                	and    %ah,(%eax)
 804c2fc:	45                   	inc    %ebp
 804c2fd:	78 74                	js     804c373 <_IO_stdin_used@@Base+0x7ef>
 804c2ff:	72 61                	jb     804c362 <_IO_stdin_used@@Base+0x7de>
 804c301:	63 74 20 66          	arpl   %esi,0x66(%eax,%eiz,1)
 804c305:	69 6c 65 73 20 74 6f 	imul   $0x206f7420,0x73(%ebp,%eiz,2),%ebp
 804c30c:	20 
 804c30d:	3c 64                	cmp    $0x64,%al
 804c30f:	69 72 3e 20 64 69 72 	imul   $0x72696420,0x3e(%edx),%esi
 804c316:	65 63 74 6f 72       	arpl   %esi,%gs:0x72(%edi,%ebp,2)
 804c31b:	79 2e                	jns    804c34b <_IO_stdin_used@@Base+0x7c7>
 804c31d:	0a 2d 76 20 66 69    	or     0x69662076,%ch
 804c323:	6c                   	insb   (%dx),%es:(%edi)
 804c324:	65 20 54 61 6b       	and    %dl,%gs:0x6b(%ecx,%eiz,2)
 804c329:	65 20 61 64          	and    %ah,%gs:0x64(%ecx)
 804c32d:	64 69 74 69 6f 6e 61 	imul   $0x206c616e,%fs:0x6f(%ecx,%ebp,2),%esi
 804c334:	6c 20 
 804c336:	61                   	popa
 804c337:	72 67                	jb     804c3a0 <_IO_stdin_used@@Base+0x81c>
 804c339:	75 6d                	jne    804c3a8 <_IO_stdin_used@@Base+0x824>
 804c33b:	65 6e                	outsb  %gs:(%esi),(%dx)
 804c33d:	74 73                	je     804c3b2 <_IO_stdin_used@@Base+0x82e>
 804c33f:	20 66 72             	and    %ah,0x72(%esi)
 804c342:	6f                   	outsl  %ds:(%esi),(%dx)
 804c343:	6d                   	insl   (%dx),%es:(%edi)
 804c344:	20 76 69             	and    %dh,0x69(%esi)
 804c347:	61                   	popa
 804c348:	20 66 69             	and    %ah,0x69(%esi)
 804c34b:	6c                   	insb   (%dx),%es:(%edi)
 804c34c:	65 2e 0a 0a          	gs or  %cs:(%edx),%cl
	...
 804c360:	45                   	inc    %ebp
 804c361:	78 61                	js     804c3c4 <_IO_stdin_used@@Base+0x840>
 804c363:	6d                   	insl   (%dx),%es:(%edi)
 804c364:	70 6c                	jo     804c3d2 <_IO_stdin_used@@Base+0x84e>
 804c366:	65 73 3a             	gs jae 804c3a3 <_IO_stdin_used@@Base+0x81f>
 804c369:	2d 0a 0a 20 20       	sub    $0x20200a0a,%eax
 804c36e:	20 20                	and    %ah,(%eax)
 804c370:	20 20                	and    %ah,(%eax)
 804c372:	20 20                	and    %ah,(%eax)
 804c374:	25 73 20 2d 63       	and    $0x632d2073,%eax
 804c379:	20 6d 79             	and    %ch,0x79(%ebp)
 804c37c:	6c                   	insb   (%dx),%es:(%edi)
 804c37d:	69 62 20 6f 62 6a 31 	imul   $0x316a626f,0x20(%edx),%esp
 804c384:	20 6f 62             	and    %ch,0x62(%edi)
 804c387:	6a 32                	push   $0x32
 804c389:	20 6f 62             	and    %ch,0x62(%edi)
 804c38c:	6a 33                	push   $0x33
 804c38e:	2e 2e 2e 0a 20       	cs cs or %cs:(%eax),%ah
 804c393:	20 20                	and    %ah,(%eax)
 804c395:	20 20                	and    %ah,(%eax)
 804c397:	20 20                	and    %ah,(%eax)
 804c399:	20 25 73 20 2d 65    	and    %ah,0x652d2073
 804c39f:	20 6d 79             	and    %ch,0x79(%ebp)
 804c3a2:	6c                   	insb   (%dx),%es:(%edi)
 804c3a3:	69 62 20 25 63 73 6f 	imul   $0x6f736325,0x20(%edx),%esp
 804c3aa:	72 74                	jb     804c420 <_IO_stdin_used@@Base+0x89c>
 804c3ac:	2a 0a                	sub    (%edx),%cl
 804c3ae:	20 20                	and    %ah,(%eax)
 804c3b0:	20 20                	and    %ah,(%eax)
 804c3b2:	20 20                	and    %ah,(%eax)
 804c3b4:	20 20                	and    %ah,(%eax)
 804c3b6:	25 73 20 2d 64       	and    $0x642d2073,%eax
 804c3bb:	20 6d 79             	and    %ch,0x79(%ebp)
 804c3be:	6c                   	insb   (%dx),%es:(%edi)
 804c3bf:	69 62 20 68 61 73 68 	imul   $0x68736168,0x20(%edx),%esp
 804c3c6:	2e 6f                	outsl  %cs:(%esi),(%dx)
 804c3c8:	0a 20                	or     (%eax),%ah
 804c3ca:	20 20                	and    %ah,(%eax)
 804c3cc:	20 20                	and    %ah,(%eax)
 804c3ce:	20 20                	and    %ah,(%eax)
 804c3d0:	20 25 73 20 2d 69    	and    %ah,0x692d2073
 804c3d6:	20 6d 79             	and    %ch,0x79(%ebp)
 804c3d9:	6c                   	insb   (%dx),%es:(%edi)
 804c3da:	69 62 20 71 75 69 63 	imul   $0x63697571,0x20(%edx),%esp
 804c3e1:	6b 5f 73 6f          	imul   $0x6f,0x73(%edi),%ebx
 804c3e5:	72 74                	jb     804c45b <_IO_stdin_used@@Base+0x8d7>
 804c3e7:	2e 6f                	outsl  %cs:(%esi),(%dx)
 804c3e9:	20 71 75             	and    %dh,0x75(%ecx)
 804c3ec:	69 63 6b 5f 68 61 73 	imul   $0x7361685f,0x6b(%ebx),%esp
 804c3f3:	68 31 2e 6f 0a       	push   $0xa6f2e31
 804c3f8:	20 20                	and    %ah,(%eax)
 804c3fa:	20 20                	and    %ah,(%eax)
 804c3fc:	20 20                	and    %ah,(%eax)
 804c3fe:	20 20                	and    %ah,(%eax)
 804c400:	25 73 20 2d 6c       	and    $0x6c2d2073,%eax
 804c405:	20 2d 73 20 61 6e    	and    %ch,0x6e612073
 804c40b:	73 69                	jae    804c476 <_IO_stdin_used@@Base+0x8f2>
 804c40d:	6c                   	insb   (%dx),%es:(%edi)
 804c40e:	69 62 0a 0a 00 00 00 	imul   $0xa,0xa(%edx),%esp
	...
 804c41d:	00 00                	add    %al,(%eax)
 804c41f:	00 4d 75             	add    %cl,0x75(%ebp)
 804c422:	6c                   	insb   (%dx),%es:(%edi)
 804c423:	74 69                	je     804c48e <_IO_stdin_used@@Base+0x90a>
 804c425:	70 6c                	jo     804c493 <_IO_stdin_used@@Base+0x90f>
 804c427:	65 20 6c 69 62       	and    %ch,%gs:0x62(%ecx,%ebp,2)
 804c42c:	72 61                	jb     804c48f <_IO_stdin_used@@Base+0x90b>
 804c42e:	72 69                	jb     804c499 <_IO_stdin_used@@Base+0x915>
 804c430:	65 73 3a             	gs jae 804c46d <_IO_stdin_used@@Base+0x8e9>
 804c433:	20 25 73 20 61 6d    	and    %ah,0x6d612073
 804c439:	64 20 25 73 2e 00 55 	and    %ah,%fs:0x55002e73
 804c440:	6e                   	outsb  %ds:(%esi),(%dx)
 804c441:	72 65                	jb     804c4a8 <_IO_stdin_used@@Base+0x924>
 804c443:	63 6f 67             	arpl   %ebp,0x67(%edi)
 804c446:	6e                   	outsb  %ds:(%esi),(%dx)
 804c447:	69 73 65 64 20 6f 70 	imul   $0x706f2064,0x65(%ebx),%esi
 804c44e:	74 69                	je     804c4b9 <_IO_stdin_used@@Base+0x935>
 804c450:	6f                   	outsl  %ds:(%esi),(%dx)
 804c451:	6e                   	outsb  %ds:(%esi),(%dx)
 804c452:	28 73 29             	sub    %dh,0x29(%ebx)
 804c455:	20 2d 25 73 2e 00    	and    %ch,0x2e7325
 804c45b:	00 00                	add    %al,(%eax)
 804c45d:	00 00                	add    %al,(%eax)
 804c45f:	00 4e 6f             	add    %cl,0x6f(%esi)
 804c462:	20 66 69             	and    %ah,0x69(%esi)
 804c465:	6c                   	insb   (%dx),%es:(%edi)
 804c466:	65 6e                	outsb  %gs:(%esi),(%dx)
 804c468:	61                   	popa
 804c469:	6d                   	insl   (%dx),%es:(%edi)
 804c46a:	65 20 73 75          	and    %dh,%gs:0x75(%ebx)
 804c46e:	70 70                	jo     804c4e0 <_IO_stdin_used@@Base+0x95c>
 804c470:	6c                   	insb   (%dx),%es:(%edi)
 804c471:	69 65 64 20 66 6f 72 	imul   $0x726f6620,0x64(%ebp),%esp
 804c478:	20 2d 76 69 61 20    	and    %ch,0x20616976
 804c47e:	6f                   	outsl  %ds:(%esi),(%dx)
 804c47f:	70 74                	jo     804c4f5 <_IO_stdin_used@@Base+0x971>
 804c481:	69 6f 6e 2e 00 20 00 	imul   $0x20002e,0x6e(%edi),%ebp
	...
 804c4a0:	4e                   	dec    %esi
 804c4a1:	6f                   	outsl  %ds:(%esi),(%dx)
 804c4a2:	20 64 69 72          	and    %ah,0x72(%ecx,%ebp,2)
 804c4a6:	65 63 74 6f 72       	arpl   %esi,%gs:0x72(%edi,%ebp,2)
 804c4ab:	79 20                	jns    804c4cd <_IO_stdin_used@@Base+0x949>
 804c4ad:	70 61                	jo     804c510 <_IO_stdin_used@@Base+0x98c>
 804c4af:	74 68                	je     804c519 <_IO_stdin_used@@Base+0x995>
 804c4b1:	20 73 75             	and    %dh,0x75(%ebx)
 804c4b4:	70 70                	jo     804c526 <_IO_stdin_used@@Base+0x9a2>
 804c4b6:	6c                   	insb   (%dx),%es:(%edi)
 804c4b7:	69 65 64 20 66 6f 72 	imul   $0x726f6620,0x64(%ebp),%esp
 804c4be:	20 2d 64 20 6f 70    	and    %ch,0x706f2064
 804c4c4:	74 69                	je     804c52f <_IO_stdin_used@@Base+0x9ab>
 804c4c6:	6f                   	outsl  %ds:(%esi),(%dx)
 804c4c7:	6e                   	outsb  %ds:(%esi),(%dx)
 804c4c8:	2e 00 66 69          	add    %ah,%cs:0x69(%esi)
 804c4cc:	6c                   	insb   (%dx),%es:(%edi)
 804c4cd:	65 73 00             	gs jae 804c4d0 <_IO_stdin_used@@Base+0x94c>
 804c4d0:	6d                   	insl   (%dx),%es:(%edi)
 804c4d1:	65 6d                	gs insl (%dx),%es:(%edi)
 804c4d3:	62 2a                	bound  %ebp,(%edx)
 804c4d5:	00 6c 69 62          	add    %ch,0x62(%ecx,%ebp,2)
 804c4d9:	2a 00                	sub    (%eax),%al
 804c4db:	6f                   	outsl  %ds:(%esi),(%dx)
 804c4dc:	62 2a                	bound  %ebp,(%edx)
 804c4de:	00 73 79             	add    %dh,0x79(%ebx)
 804c4e1:	2a 00                	sub    (%eax),%al
 804c4e3:	69 6e 73 2a 00 64 65 	imul   $0x6564002a,0x73(%esi),%ebp
 804c4ea:	6c                   	insb   (%dx),%es:(%edi)
 804c4eb:	65 74 2a             	gs je  804c518 <_IO_stdin_used@@Base+0x994>
 804c4ee:	00 65 78             	add    %ah,0x78(%ebp)
 804c4f1:	2a 00                	sub    (%eax),%al
 804c4f3:	63 72 2a             	arpl   %esi,0x2a(%edx)
	...
 804c4fe:	00 00                	add    %al,(%eax)
 804c500:	4f                   	dec    %edi
 804c501:	6e                   	outsb  %ds:(%esi),(%dx)
 804c502:	6c                   	insb   (%dx),%es:(%edi)
 804c503:	79 20                	jns    804c525 <_IO_stdin_used@@Base+0x9a1>
 804c505:	6f                   	outsl  %ds:(%esi),(%dx)
 804c506:	6e                   	outsb  %ds:(%esi),(%dx)
 804c507:	65 20 6f 66          	and    %ch,%gs:0x66(%edi)
 804c50b:	20 2d 63 2c 20 2d    	and    %ch,0x2d202c63
 804c511:	69 2c 20 2d 64 20 61 	imul   $0x6120642d,(%eax,%eiz,1),%ebp
 804c518:	6e                   	outsb  %ds:(%esi),(%dx)
 804c519:	64 20 2d 65 20 6d 61 	and    %ch,%fs:0x616d2065
 804c520:	79 20                	jns    804c542 <_IO_stdin_used@@Base+0x9be>
 804c522:	62 65 20             	bound  %esp,0x20(%ebp)
 804c525:	75 73                	jne    804c59a <_IO_stdin_used@@Base+0xa16>
 804c527:	65 64 2e 00 00       	gs fs add %al,%cs:(%eax)
 804c52c:	c2 a7 04             	ret    $0x4a7
 804c52f:	08 8e a7 04 08 a8    	or     %cl,-0x57f7fb59(%esi)
 804c535:	a7                   	cmpsl  %es:(%edi),%ds:(%esi)
 804c536:	04 08                	add    $0x8,%al
 804c538:	90                   	nop
 804c539:	a6                   	cmpsb  %es:(%edi),%ds:(%esi)
 804c53a:	04 08                	add    $0x8,%al
 804c53c:	77 a5                	ja     804c4e3 <_IO_stdin_used@@Base+0x95f>
 804c53e:	04 08                	add    $0x8,%al
 804c540:	c8 a6 04 08          	enter  $0x4a6,$0x8
 804c544:	70 a7                	jo     804c4ed <_IO_stdin_used@@Base+0x969>
 804c546:	04 08                	add    $0x8,%al
 804c548:	77 a5                	ja     804c4ef <_IO_stdin_used@@Base+0x96b>
 804c54a:	04 08                	add    $0x8,%al
 804c54c:	77 a5                	ja     804c4f3 <_IO_stdin_used@@Base+0x96f>
 804c54e:	04 08                	add    $0x8,%al
 804c550:	d4 a6                	aam    $0xa6
 804c552:	04 08                	add    $0x8,%al
 804c554:	90                   	nop
 804c555:	a6                   	cmpsb  %es:(%edi),%ds:(%esi)
 804c556:	04 08                	add    $0x8,%al
 804c558:	10 a7 04 08 20 a7    	adc    %ah,-0x58dff7fc(%edi)
 804c55e:	04 08                	add    $0x8,%al
 804c560:	80 a6 04 08 77 a5 04 	andb   $0x4,-0x5a88f7fc(%esi)
 804c567:	08 77 a5             	or     %dh,-0x5b(%edi)
 804c56a:	04 08                	add    $0x8,%al
 804c56c:	46                   	inc    %esi
 804c56d:	a7                   	cmpsl  %es:(%edi),%ds:(%esi)
 804c56e:	04 08                	add    $0x8,%al
 804c570:	48                   	dec    %eax
 804c571:	a6                   	cmpsb  %es:(%edi),%ds:(%esi)
 804c572:	04 08                	add    $0x8,%al
 804c574:	77 a5                	ja     804c51b <_IO_stdin_used@@Base+0x997>
 804c576:	04 08                	add    $0x8,%al
 804c578:	80 a5 04 08 4e 6f 20 	andb   $0x20,0x6f4e0804(%ebp)
 804c57f:	6c                   	insb   (%dx),%es:(%edi)
 804c580:	69 62 72 61 72 79 20 	imul   $0x20797261,0x72(%edx),%esp
 804c587:	66 69 6c 65 20 73 70 	imul   $0x7073,0x20(%ebp,%eiz,2),%bp
 804c58e:	65 63 69 66          	arpl   %ebp,%gs:0x66(%ecx)
 804c592:	69 65 64 2e 00 00 00 	imul   $0x2e,0x64(%ebp),%esp
 804c599:	00 00                	add    %al,(%eax)
 804c59b:	00 00                	add    %al,(%eax)
 804c59d:	00 00                	add    %al,(%eax)
 804c59f:	00 50 6c             	add    %dl,0x6c(%eax)
 804c5a2:	65 61                	gs popa
 804c5a4:	73 65                	jae    804c60b <_IO_stdin_used@@Base+0xa87>
 804c5a6:	20 75 73             	and    %dh,0x73(%ebp)
 804c5a9:	65 20 61 74          	and    %ah,%gs:0x74(%ecx)
 804c5ad:	20 6c 65 61          	and    %ch,0x61(%ebp,%eiz,2)
 804c5b1:	73 74                	jae    804c627 <_IO_stdin_used@@Base+0xaa3>
 804c5b3:	20 6f 6e             	and    %ch,0x6e(%edi)
 804c5b6:	65 20 6f 66          	and    %ch,%gs:0x66(%edi)
 804c5ba:	20 2d 63 2c 20 2d    	and    %ch,0x2d202c63
 804c5c0:	69 2c 20 2d 64 2c 20 	imul   $0x202c642d,(%eax,%eiz,1),%ebp
 804c5c7:	2d 65 2c 20 2d       	sub    $0x2d202c65,%eax
 804c5cc:	6f                   	outsl  %ds:(%esi),(%dx)
 804c5cd:	2c 20                	sub    $0x20,%al
 804c5cf:	2d 6c 20 6f 72       	sub    $0x726f206c,%eax
 804c5d4:	20 2d 73 2e 00 00    	and    %ch,0x2e73
 804c5da:	00 00                	add    %al,(%eax)
 804c5dc:	00 00                	add    %al,(%eax)
 804c5de:	00 00                	add    %al,(%eax)
 804c5e0:	4e                   	dec    %esi
 804c5e1:	6f                   	outsl  %ds:(%esi),(%dx)
 804c5e2:	20 66 69             	and    %ah,0x69(%esi)
 804c5e5:	6c                   	insb   (%dx),%es:(%edi)
 804c5e6:	65 20 6f 72          	and    %ch,%gs:0x72(%edi)
 804c5ea:	20 6d 65             	and    %ch,0x65(%ebp)
 804c5ed:	6d                   	insl   (%dx),%es:(%edi)
 804c5ee:	62 65 72             	bound  %esp,0x72(%ebp)
 804c5f1:	20 6c 69 73          	and    %ch,0x73(%ecx,%ebp,2)
 804c5f5:	74 20                	je     804c617 <_IO_stdin_used@@Base+0xa93>
 804c5f7:	73 70                	jae    804c669 <DIRSEP@@Base+0x34>
 804c5f9:	65 63 69 66          	arpl   %ebp,%gs:0x66(%ecx)
 804c5fd:	69 65 64 2e 00 49 6e 	imul   $0x6e49002e,0x64(%ebp),%esp
 804c604:	76 61                	jbe    804c667 <DIRSEP@@Base+0x32>
 804c606:	6c                   	insb   (%dx),%es:(%edi)
 804c607:	69 64 20 66 69 6c 65 	imul   $0x20656c69,0x66(%eax,%eiz,1),%esp
 804c60e:	20 
 804c60f:	6f                   	outsl  %ds:(%esi),(%dx)
 804c610:	72 20                	jb     804c632 <_IO_stdin_used@@Base+0xaae>
 804c612:	6d                   	insl   (%dx),%es:(%edi)
 804c613:	65 6d                	gs insl (%dx),%es:(%edi)
 804c615:	62 65 72             	bound  %esp,0x72(%ebp)
 804c618:	20 6c 69 73          	and    %ch,0x73(%ecx,%ebp,2)
 804c61c:	74 2e                	je     804c64c <DIRSEP@@Base+0x17>
 804c61e:	00 00                	add    %al,(%eax)
 804c620:	2e 5c                	cs pop %esp
 804c622:	2f                   	das
 804c623:	3a 00                	cmp    (%eax),%al
 804c625:	00 40 2e             	add    %al,0x2e(%eax)
 804c628:	2e 00 00             	add    %al,%cs:(%eax)
 804c62b:	2e 65 78 65          	cs js,pn 804c694 <DIRSEP@@Base+0x5f>
 804c62f:	00 2e                	add    %ch,(%esi)
 804c631:	45                   	inc    %ebp
 804c632:	58                   	pop    %eax
 804c633:	45                   	inc    %ebp
	...

0804c635 <DIRSEP@@Base>:
 804c635:	2f                   	das
 804c636:	2e                   	cs
	...

Disassembly of section .data:

0804d638 <.data>:
 804d638:	00 00                	add    %al,(%eax)
 804d63a:	00 00                	add    %al,(%eax)
 804d63c:	5c                   	pop    %esp
 804d63d:	d6                   	(bad)
 804d63e:	04 08                	add    $0x8,%al
	...

Disassembly of section .eh_frame:

0804d64c <.eh_frame>:
 804d64c:	00 00                	add    %al,(%eax)
	...

Disassembly of section .ctors:

0804d650 <.ctors>:
 804d650:	ff                   	(bad)
 804d651:	ff                   	(bad)
 804d652:	ff                   	(bad)
 804d653:	ff 00                	incl   (%eax)
 804d655:	00 00                	add    %al,(%eax)
	...

Disassembly of section .dtors:

0804d658 <.dtors>:
 804d658:	ff                   	(bad)
 804d659:	ff                   	(bad)
 804d65a:	ff                   	(bad)
 804d65b:	ff 00                	incl   (%eax)
 804d65d:	00 00                	add    %al,(%eax)
	...

Disassembly of section .got:

0804d660 <.got>:
 804d660:	f4                   	hlt
 804d661:	d6                   	(bad)
 804d662:	04 08                	add    $0x8,%al
	...
 804d66c:	e6 87                	out    %al,$0x87
			804d66c: *unknown*	mkdir@GLIBC_2.0
 804d66e:	04 08                	add    $0x8,%al
 804d670:	f6 87 04 08 06 88 04 	testb  $0x4,-0x77f9f7fc(%edi)
			804d670: *unknown*	__register_frame_info@GLIBC_2.0
			804d674: *unknown*	strcmp@GLIBC_2.0
 804d677:	08 16                	or     %dl,(%esi)
			804d678: *unknown*	fprintf@GLIBC_2.0
 804d679:	88 04 08             	mov    %al,(%eax,%ecx,1)
 804d67c:	26 88 04 08          	mov    %al,%es:(%eax,%ecx,1)
			804d67c: *unknown*	isgraph@GLIBC_2.0
 804d680:	36 88 04 08          	mov    %al,%ss:(%eax,%ecx,1)
			804d680: *unknown*	__errno_location@GLIBC_2.0
 804d684:	46                   	inc    %esi
			804d684: *unknown*	ftell@GLIBC_2.0
 804d685:	88 04 08             	mov    %al,(%eax,%ecx,1)
 804d688:	56                   	push   %esi
			804d688: *unknown*	tolower@GLIBC_2.0
 804d689:	88 04 08             	mov    %al,(%eax,%ecx,1)
 804d68c:	66 88 04 08          	data16 mov %al,(%eax,%ecx,1)
			804d68c: *unknown*	malloc@GLIBC_2.0
 804d690:	76 88                	jbe    804d61a <DIRSEP@@Base+0xfe5>
			804d690: *unknown*	fread@GLIBC_2.0
 804d692:	04 08                	add    $0x8,%al
 804d694:	86 88 04 08 96 88    	xchg   %cl,-0x7769f7fc(%eax)
			804d694: *unknown*	__deregister_frame_info@GLIBC_2.0
			804d698: *unknown*	__xstat@GLIBC_2.0
 804d69a:	04 08                	add    $0x8,%al
 804d69c:	a6                   	cmpsb  %es:(%edi),%ds:(%esi)
			804d69c: *unknown*	vfprintf@GLIBC_2.0
 804d69d:	88 04 08             	mov    %al,(%eax,%ecx,1)
 804d6a0:	b6 88                	mov    $0x88,%dh
			804d6a0: *unknown*	fseek@GLIBC_2.0
 804d6a2:	04 08                	add    $0x8,%al
 804d6a4:	c6                   	(bad)
			804d6a4: *unknown*	time@GLIBC_2.0
 804d6a5:	88 04 08             	mov    %al,(%eax,%ecx,1)
 804d6a8:	d6                   	(bad)
			804d6a8: *unknown*	strncmp@GLIBC_2.0
 804d6a9:	88 04 08             	mov    %al,(%eax,%ecx,1)
 804d6ac:	e6 88                	out    %al,$0x88
			804d6ac: *unknown*	__libc_start_main@GLIBC_2.0
 804d6ae:	04 08                	add    $0x8,%al
 804d6b0:	f6 88 04 08 06 89 04 	testb  $0x4,-0x76f9f7fc(%eax)
			804d6b0: *unknown*	printf@GLIBC_2.0
			804d6b4: *unknown*	memcpy@GLIBC_2.0
 804d6b7:	08 16                	or     %dl,(%esi)
			804d6b8: *unknown*	fclose@GLIBC_2.1
 804d6b9:	89 04 08             	mov    %eax,(%eax,%ecx,1)
 804d6bc:	26 89 04 08          	mov    %eax,%es:(%eax,%ecx,1)
			804d6bc: *unknown*	strrchr@GLIBC_2.0
 804d6c0:	36 89 04 08          	mov    %eax,%ss:(%eax,%ecx,1)
			804d6c0: *unknown*	ctime@GLIBC_2.0
 804d6c4:	46                   	inc    %esi
			804d6c4: *unknown*	closedir@GLIBC_2.0
 804d6c5:	89 04 08             	mov    %eax,(%eax,%ecx,1)
 804d6c8:	56                   	push   %esi
			804d6c8: *unknown*	opendir@GLIBC_2.0
 804d6c9:	89 04 08             	mov    %eax,(%eax,%ecx,1)
 804d6cc:	66 89 04 08          	mov    %ax,(%eax,%ecx,1)
			804d6cc: *unknown*	exit@GLIBC_2.0
 804d6d0:	76 89                	jbe    804d65b <DIRSEP@@Base+0x1026>
			804d6d0: *unknown*	isalpha@GLIBC_2.0
 804d6d2:	04 08                	add    $0x8,%al
 804d6d4:	86 89 04 08 96 89    	xchg   %cl,-0x7669f7fc(%ecx)
			804d6d4: *unknown*	memset@GLIBC_2.0
			804d6d8: *unknown*	strncpy@GLIBC_2.0
 804d6da:	04 08                	add    $0x8,%al
 804d6dc:	a6                   	cmpsb  %es:(%edi),%ds:(%esi)
			804d6dc: *unknown*	fopen@GLIBC_2.1
 804d6dd:	89 04 08             	mov    %eax,(%eax,%ecx,1)
 804d6e0:	b6 89                	mov    $0x89,%dh
			804d6e0: *unknown*	fwrite@GLIBC_2.0
 804d6e2:	04 08                	add    $0x8,%al
 804d6e4:	c6                   	(bad)
			804d6e4: *unknown*	readdir@GLIBC_2.0
 804d6e5:	89 04 08             	mov    %eax,(%eax,%ecx,1)
 804d6e8:	d6                   	(bad)
			804d6e8: *unknown*	strcpy@GLIBC_2.0
 804d6e9:	89 04 08             	mov    %eax,(%eax,%ecx,1)
	...
			804d6ec: R_386_GLOB_DAT	__gmon_start__
			804d6f0: R_386_GLOB_DAT	DIRSEP@@Base

Disassembly of section .dynamic:

0804d6f4 <.dynamic>:
 804d6f4:	01 00                	add    %eax,(%eax)
 804d6f6:	00 00                	add    %al,(%eax)
 804d6f8:	17                   	pop    %ss
 804d6f9:	00 00                	add    %al,(%eax)
 804d6fb:	00 0c 00             	add    %cl,(%eax,%eax,1)
 804d6fe:	00 00                	add    %al,(%eax)
 804d700:	a0 87 04 08 0d       	mov    0xd080487,%al
 804d705:	00 00                	add    %al,(%eax)
 804d707:	00 5c bb 04          	add    %bl,0x4(%ebx,%edi,4)
 804d70b:	08 04 00             	or     %al,(%eax,%eax,1)
 804d70e:	00 00                	add    %al,(%eax)
 804d710:	28 81 04 08 05 00    	sub    %al,0x50804(%ecx)
 804d716:	00 00                	add    %al,(%eax)
 804d718:	a8 84                	test   $0x84,%al
 804d71a:	04 08                	add    $0x8,%al
 804d71c:	06                   	push   %es
 804d71d:	00 00                	add    %al,(%eax)
 804d71f:	00 58 82             	add    %bl,-0x7e(%eax)
 804d722:	04 08                	add    $0x8,%al
 804d724:	0a 00                	or     (%eax),%al
 804d726:	00 00                	add    %al,(%eax)
 804d728:	50                   	push   %eax
 804d729:	01 00                	add    %eax,(%eax)
 804d72b:	00 0b                	add    %cl,(%ebx)
 804d72d:	00 00                	add    %al,(%eax)
 804d72f:	00 10                	add    %dl,(%eax)
 804d731:	00 00                	add    %al,(%eax)
 804d733:	00 15 00 00 00 00    	add    %dl,0x0
 804d739:	00 00                	add    %al,(%eax)
 804d73b:	00 03                	add    %al,(%ebx)
 804d73d:	00 00                	add    %al,(%eax)
 804d73f:	00 60 d6             	add    %ah,-0x2a(%eax)
 804d742:	04 08                	add    $0x8,%al
 804d744:	02 00                	add    (%eax),%al
 804d746:	00 00                	add    %al,(%eax)
 804d748:	00 01                	add    %al,(%ecx)
 804d74a:	00 00                	add    %al,(%eax)
 804d74c:	14 00                	adc    $0x0,%al
 804d74e:	00 00                	add    %al,(%eax)
 804d750:	11 00                	adc    %eax,(%eax)
 804d752:	00 00                	add    %al,(%eax)
 804d754:	17                   	pop    %ss
 804d755:	00 00                	add    %al,(%eax)
 804d757:	00 a0 86 04 08 11    	add    %ah,0x11080486(%eax)
 804d75d:	00 00                	add    %al,(%eax)
 804d75f:	00 88 86 04 08 12    	add    %cl,0x12080486(%eax)
 804d765:	00 00                	add    %al,(%eax)
 804d767:	00 18                	add    %bl,(%eax)
 804d769:	00 00                	add    %al,(%eax)
 804d76b:	00 13                	add    %dl,(%ebx)
 804d76d:	00 00                	add    %al,(%eax)
 804d76f:	00 08                	add    %cl,(%eax)
 804d771:	00 00                	add    %al,(%eax)
 804d773:	00 fe                	add    %bh,%dh
 804d775:	ff                   	(bad)
 804d776:	ff 6f 58             	ljmp   *0x58(%edi)
 804d779:	86 04 08             	xchg   %al,(%eax,%ecx,1)
 804d77c:	ff                   	(bad)
 804d77d:	ff                   	(bad)
 804d77e:	ff 6f 01             	ljmp   *0x1(%edi)
 804d781:	00 00                	add    %al,(%eax)
 804d783:	00 f0                	add    %dh,%al
 804d785:	ff                   	(bad)
 804d786:	ff 6f 0c             	ljmp   *0xc(%edi)
 804d789:	86 04 08             	xchg   %al,(%eax,%ecx,1)
	...

Disassembly of section .comment:

00000000 <.comment>:
   0:	00 47 43             	add    %al,0x43(%edi)
   3:	43                   	inc    %ebx
   4:	3a 20                	cmp    (%eax),%ah
   6:	28 47 4e             	sub    %al,0x4e(%edi)
   9:	55                   	push   %ebp
   a:	29 20                	sub    %esp,(%eax)
   c:	65 67 63 73 2d       	arpl   %esi,%gs:0x2d(%bp,%di)
  11:	32 2e                	xor    (%esi),%ch
  13:	39 31                	cmp    %esi,(%ecx)
  15:	2e 36 36 20 31       	cs ss and %dh,%ss:(%ecx)
  1a:	39 39                	cmp    %edi,(%ecx)
  1c:	39 30                	cmp    %esi,(%eax)
  1e:	33 31                	xor    (%ecx),%esi
  20:	34 2f                	xor    $0x2f,%al
  22:	4c                   	dec    %esp
  23:	69 6e 75 78 20 28 65 	imul   $0x65282078,0x75(%esi),%ebp
  2a:	67 63 73 2d          	arpl   %esi,0x2d(%bp,%di)
  2e:	31 2e                	xor    %ebp,(%esi)
  30:	31 2e                	xor    %ebp,(%esi)
  32:	32 20                	xor    (%eax),%ah
  34:	72 65                	jb     9b <mkdir@plt-0x8048745>
  36:	6c                   	insb   (%dx),%es:(%edi)
  37:	65 61                	gs popa
  39:	73 65                	jae    a0 <mkdir@plt-0x8048740>
  3b:	29 00                	sub    %eax,(%eax)
  3d:	00 47 43             	add    %al,0x43(%edi)
  40:	43                   	inc    %ebx
  41:	3a 20                	cmp    (%eax),%ah
  43:	28 47 4e             	sub    %al,0x4e(%edi)
  46:	55                   	push   %ebp
  47:	29 20                	sub    %esp,(%eax)
  49:	65 67 63 73 2d       	arpl   %esi,%gs:0x2d(%bp,%di)
  4e:	32 2e                	xor    (%esi),%ch
  50:	39 31                	cmp    %esi,(%ecx)
  52:	2e 36 36 20 31       	cs ss and %dh,%ss:(%ecx)
  57:	39 39                	cmp    %edi,(%ecx)
  59:	39 30                	cmp    %esi,(%eax)
  5b:	33 31                	xor    (%ecx),%esi
  5d:	34 2f                	xor    $0x2f,%al
  5f:	4c                   	dec    %esp
  60:	69 6e 75 78 20 28 65 	imul   $0x65282078,0x75(%esi),%ebp
  67:	67 63 73 2d          	arpl   %esi,0x2d(%bp,%di)
  6b:	31 2e                	xor    %ebp,(%esi)
  6d:	31 2e                	xor    %ebp,(%esi)
  6f:	32 20                	xor    (%eax),%ah
  71:	72 65                	jb     d8 <mkdir@plt-0x8048708>
  73:	6c                   	insb   (%dx),%es:(%edi)
  74:	65 61                	gs popa
  76:	73 65                	jae    dd <mkdir@plt-0x8048703>
  78:	29 00                	sub    %eax,(%eax)
  7a:	00 47 43             	add    %al,0x43(%edi)
  7d:	43                   	inc    %ebx
  7e:	3a 20                	cmp    (%eax),%ah
  80:	28 47 4e             	sub    %al,0x4e(%edi)
  83:	55                   	push   %ebp
  84:	29 20                	sub    %esp,(%eax)
  86:	65 67 63 73 2d       	arpl   %esi,%gs:0x2d(%bp,%di)
  8b:	32 2e                	xor    (%esi),%ch
  8d:	39 31                	cmp    %esi,(%ecx)
  8f:	2e 36 36 20 31       	cs ss and %dh,%ss:(%ecx)
  94:	39 39                	cmp    %edi,(%ecx)
  96:	39 30                	cmp    %esi,(%eax)
  98:	33 31                	xor    (%ecx),%esi
  9a:	34 2f                	xor    $0x2f,%al
  9c:	4c                   	dec    %esp
  9d:	69 6e 75 78 20 28 65 	imul   $0x65282078,0x75(%esi),%ebp
  a4:	67 63 73 2d          	arpl   %esi,0x2d(%bp,%di)
  a8:	31 2e                	xor    %ebp,(%esi)
  aa:	31 2e                	xor    %ebp,(%esi)
  ac:	32 20                	xor    (%eax),%ah
  ae:	72 65                	jb     115 <mkdir@plt-0x80486cb>
  b0:	6c                   	insb   (%dx),%es:(%edi)
  b1:	65 61                	gs popa
  b3:	73 65                	jae    11a <mkdir@plt-0x80486c6>
  b5:	29 00                	sub    %eax,(%eax)
  b7:	00 47 43             	add    %al,0x43(%edi)
  ba:	43                   	inc    %ebx
  bb:	3a 20                	cmp    (%eax),%ah
  bd:	28 47 4e             	sub    %al,0x4e(%edi)
  c0:	55                   	push   %ebp
  c1:	29 20                	sub    %esp,(%eax)
  c3:	65 67 63 73 2d       	arpl   %esi,%gs:0x2d(%bp,%di)
  c8:	32 2e                	xor    (%esi),%ch
  ca:	39 31                	cmp    %esi,(%ecx)
  cc:	2e 36 36 20 31       	cs ss and %dh,%ss:(%ecx)
  d1:	39 39                	cmp    %edi,(%ecx)
  d3:	39 30                	cmp    %esi,(%eax)
  d5:	33 31                	xor    (%ecx),%esi
  d7:	34 2f                	xor    $0x2f,%al
  d9:	4c                   	dec    %esp
  da:	69 6e 75 78 20 28 65 	imul   $0x65282078,0x75(%esi),%ebp
  e1:	67 63 73 2d          	arpl   %esi,0x2d(%bp,%di)
  e5:	31 2e                	xor    %ebp,(%esi)
  e7:	31 2e                	xor    %ebp,(%esi)
  e9:	32 20                	xor    (%eax),%ah
  eb:	72 65                	jb     152 <mkdir@plt-0x804868e>
  ed:	6c                   	insb   (%dx),%es:(%edi)
  ee:	65 61                	gs popa
  f0:	73 65                	jae    157 <mkdir@plt-0x8048689>
  f2:	29 00                	sub    %eax,(%eax)
  f4:	00 47 43             	add    %al,0x43(%edi)
  f7:	43                   	inc    %ebx
  f8:	3a 20                	cmp    (%eax),%ah
  fa:	28 47 4e             	sub    %al,0x4e(%edi)
  fd:	55                   	push   %ebp
  fe:	29 20                	sub    %esp,(%eax)
 100:	65 67 63 73 2d       	arpl   %esi,%gs:0x2d(%bp,%di)
 105:	32 2e                	xor    (%esi),%ch
 107:	39 31                	cmp    %esi,(%ecx)
 109:	2e 36 36 20 31       	cs ss and %dh,%ss:(%ecx)
 10e:	39 39                	cmp    %edi,(%ecx)
 110:	39 30                	cmp    %esi,(%eax)
 112:	33 31                	xor    (%ecx),%esi
 114:	34 2f                	xor    $0x2f,%al
 116:	4c                   	dec    %esp
 117:	69 6e 75 78 20 28 65 	imul   $0x65282078,0x75(%esi),%ebp
 11e:	67 63 73 2d          	arpl   %esi,0x2d(%bp,%di)
 122:	31 2e                	xor    %ebp,(%esi)
 124:	31 2e                	xor    %ebp,(%esi)
 126:	32 20                	xor    (%eax),%ah
 128:	72 65                	jb     18f <mkdir@plt-0x8048651>
 12a:	6c                   	insb   (%dx),%es:(%edi)
 12b:	65 61                	gs popa
 12d:	73 65                	jae    194 <mkdir@plt-0x804864c>
 12f:	29 00                	sub    %eax,(%eax)
 131:	00 47 43             	add    %al,0x43(%edi)
 134:	43                   	inc    %ebx
 135:	3a 20                	cmp    (%eax),%ah
 137:	28 47 4e             	sub    %al,0x4e(%edi)
 13a:	55                   	push   %ebp
 13b:	29 20                	sub    %esp,(%eax)
 13d:	65 67 63 73 2d       	arpl   %esi,%gs:0x2d(%bp,%di)
 142:	32 2e                	xor    (%esi),%ch
 144:	39 31                	cmp    %esi,(%ecx)
 146:	2e 36 36 20 31       	cs ss and %dh,%ss:(%ecx)
 14b:	39 39                	cmp    %edi,(%ecx)
 14d:	39 30                	cmp    %esi,(%eax)
 14f:	33 31                	xor    (%ecx),%esi
 151:	34 2f                	xor    $0x2f,%al
 153:	4c                   	dec    %esp
 154:	69 6e 75 78 20 28 65 	imul   $0x65282078,0x75(%esi),%ebp
 15b:	67 63 73 2d          	arpl   %esi,0x2d(%bp,%di)
 15f:	31 2e                	xor    %ebp,(%esi)
 161:	31 2e                	xor    %ebp,(%esi)
 163:	32 20                	xor    (%eax),%ah
 165:	72 65                	jb     1cc <mkdir@plt-0x8048614>
 167:	6c                   	insb   (%dx),%es:(%edi)
 168:	65 61                	gs popa
 16a:	73 65                	jae    1d1 <mkdir@plt-0x804860f>
 16c:	29 00                	sub    %eax,(%eax)
 16e:	00 47 43             	add    %al,0x43(%edi)
 171:	43                   	inc    %ebx
 172:	3a 20                	cmp    (%eax),%ah
 174:	28 47 4e             	sub    %al,0x4e(%edi)
 177:	55                   	push   %ebp
 178:	29 20                	sub    %esp,(%eax)
 17a:	65 67 63 73 2d       	arpl   %esi,%gs:0x2d(%bp,%di)
 17f:	32 2e                	xor    (%esi),%ch
 181:	39 31                	cmp    %esi,(%ecx)
 183:	2e 36 36 20 31       	cs ss and %dh,%ss:(%ecx)
 188:	39 39                	cmp    %edi,(%ecx)
 18a:	39 30                	cmp    %esi,(%eax)
 18c:	33 31                	xor    (%ecx),%esi
 18e:	34 2f                	xor    $0x2f,%al
 190:	4c                   	dec    %esp
 191:	69 6e 75 78 20 28 65 	imul   $0x65282078,0x75(%esi),%ebp
 198:	67 63 73 2d          	arpl   %esi,0x2d(%bp,%di)
 19c:	31 2e                	xor    %ebp,(%esi)
 19e:	31 2e                	xor    %ebp,(%esi)
 1a0:	32 20                	xor    (%eax),%ah
 1a2:	72 65                	jb     209 <mkdir@plt-0x80485d7>
 1a4:	6c                   	insb   (%dx),%es:(%edi)
 1a5:	65 61                	gs popa
 1a7:	73 65                	jae    20e <mkdir@plt-0x80485d2>
 1a9:	29 00                	sub    %eax,(%eax)
 1ab:	00 47 43             	add    %al,0x43(%edi)
 1ae:	43                   	inc    %ebx
 1af:	3a 20                	cmp    (%eax),%ah
 1b1:	28 47 4e             	sub    %al,0x4e(%edi)
 1b4:	55                   	push   %ebp
 1b5:	29 20                	sub    %esp,(%eax)
 1b7:	65 67 63 73 2d       	arpl   %esi,%gs:0x2d(%bp,%di)
 1bc:	32 2e                	xor    (%esi),%ch
 1be:	39 31                	cmp    %esi,(%ecx)
 1c0:	2e 36 36 20 31       	cs ss and %dh,%ss:(%ecx)
 1c5:	39 39                	cmp    %edi,(%ecx)
 1c7:	39 30                	cmp    %esi,(%eax)
 1c9:	33 31                	xor    (%ecx),%esi
 1cb:	34 2f                	xor    $0x2f,%al
 1cd:	4c                   	dec    %esp
 1ce:	69 6e 75 78 20 28 65 	imul   $0x65282078,0x75(%esi),%ebp
 1d5:	67 63 73 2d          	arpl   %esi,0x2d(%bp,%di)
 1d9:	31 2e                	xor    %ebp,(%esi)
 1db:	31 2e                	xor    %ebp,(%esi)
 1dd:	32 20                	xor    (%eax),%ah
 1df:	72 65                	jb     246 <mkdir@plt-0x804859a>
 1e1:	6c                   	insb   (%dx),%es:(%edi)
 1e2:	65 61                	gs popa
 1e4:	73 65                	jae    24b <mkdir@plt-0x8048595>
 1e6:	29 00                	sub    %eax,(%eax)
 1e8:	00 47 43             	add    %al,0x43(%edi)
 1eb:	43                   	inc    %ebx
 1ec:	3a 20                	cmp    (%eax),%ah
 1ee:	28 47 4e             	sub    %al,0x4e(%edi)
 1f1:	55                   	push   %ebp
 1f2:	29 20                	sub    %esp,(%eax)
 1f4:	65 67 63 73 2d       	arpl   %esi,%gs:0x2d(%bp,%di)
 1f9:	32 2e                	xor    (%esi),%ch
 1fb:	39 31                	cmp    %esi,(%ecx)
 1fd:	2e 36 36 20 31       	cs ss and %dh,%ss:(%ecx)
 202:	39 39                	cmp    %edi,(%ecx)
 204:	39 30                	cmp    %esi,(%eax)
 206:	33 31                	xor    (%ecx),%esi
 208:	34 2f                	xor    $0x2f,%al
 20a:	4c                   	dec    %esp
 20b:	69 6e 75 78 20 28 65 	imul   $0x65282078,0x75(%esi),%ebp
 212:	67 63 73 2d          	arpl   %esi,0x2d(%bp,%di)
 216:	31 2e                	xor    %ebp,(%esi)
 218:	31 2e                	xor    %ebp,(%esi)
 21a:	32 20                	xor    (%eax),%ah
 21c:	72 65                	jb     283 <mkdir@plt-0x804855d>
 21e:	6c                   	insb   (%dx),%es:(%edi)
 21f:	65 61                	gs popa
 221:	73 65                	jae    288 <mkdir@plt-0x8048558>
 223:	29 00                	sub    %eax,(%eax)
 225:	00 47 43             	add    %al,0x43(%edi)
 228:	43                   	inc    %ebx
 229:	3a 20                	cmp    (%eax),%ah
 22b:	28 47 4e             	sub    %al,0x4e(%edi)
 22e:	55                   	push   %ebp
 22f:	29 20                	sub    %esp,(%eax)
 231:	65 67 63 73 2d       	arpl   %esi,%gs:0x2d(%bp,%di)
 236:	32 2e                	xor    (%esi),%ch
 238:	39 31                	cmp    %esi,(%ecx)
 23a:	2e 36 36 20 31       	cs ss and %dh,%ss:(%ecx)
 23f:	39 39                	cmp    %edi,(%ecx)
 241:	39 30                	cmp    %esi,(%eax)
 243:	33 31                	xor    (%ecx),%esi
 245:	34 2f                	xor    $0x2f,%al
 247:	4c                   	dec    %esp
 248:	69 6e 75 78 20 28 65 	imul   $0x65282078,0x75(%esi),%ebp
 24f:	67 63 73 2d          	arpl   %esi,0x2d(%bp,%di)
 253:	31 2e                	xor    %ebp,(%esi)
 255:	31 2e                	xor    %ebp,(%esi)
 257:	32 20                	xor    (%eax),%ah
 259:	72 65                	jb     2c0 <mkdir@plt-0x8048520>
 25b:	6c                   	insb   (%dx),%es:(%edi)
 25c:	65 61                	gs popa
 25e:	73 65                	jae    2c5 <mkdir@plt-0x804851b>
 260:	29 00                	sub    %eax,(%eax)
 262:	00 47 43             	add    %al,0x43(%edi)
 265:	43                   	inc    %ebx
 266:	3a 20                	cmp    (%eax),%ah
 268:	28 47 4e             	sub    %al,0x4e(%edi)
 26b:	55                   	push   %ebp
 26c:	29 20                	sub    %esp,(%eax)
 26e:	65 67 63 73 2d       	arpl   %esi,%gs:0x2d(%bp,%di)
 273:	32 2e                	xor    (%esi),%ch
 275:	39 31                	cmp    %esi,(%ecx)
 277:	2e 36 36 20 31       	cs ss and %dh,%ss:(%ecx)
 27c:	39 39                	cmp    %edi,(%ecx)
 27e:	39 30                	cmp    %esi,(%eax)
 280:	33 31                	xor    (%ecx),%esi
 282:	34 2f                	xor    $0x2f,%al
 284:	4c                   	dec    %esp
 285:	69 6e 75 78 20 28 65 	imul   $0x65282078,0x75(%esi),%ebp
 28c:	67 63 73 2d          	arpl   %esi,0x2d(%bp,%di)
 290:	31 2e                	xor    %ebp,(%esi)
 292:	31 2e                	xor    %ebp,(%esi)
 294:	32 20                	xor    (%eax),%ah
 296:	72 65                	jb     2fd <mkdir@plt-0x80484e3>
 298:	6c                   	insb   (%dx),%es:(%edi)
 299:	65 61                	gs popa
 29b:	73 65                	jae    302 <mkdir@plt-0x80484de>
 29d:	29 00                	sub    %eax,(%eax)

Disassembly of section .note:

0000029f <.note>:
 29f:	08 00                	or     %al,(%eax)
 2a1:	00 00                	add    %al,(%eax)
 2a3:	00 00                	add    %al,(%eax)
 2a5:	00 00                	add    %al,(%eax)
 2a7:	01 00                	add    %eax,(%eax)
 2a9:	00 00                	add    %al,(%eax)
 2ab:	30 31                	xor    %dh,(%ecx)
 2ad:	2e 30 31             	xor    %dh,%cs:(%ecx)
 2b0:	00 00                	add    %al,(%eax)
 2b2:	00 08                	add    %cl,(%eax)
 2b4:	00 00                	add    %al,(%eax)
 2b6:	00 00                	add    %al,(%eax)
 2b8:	00 00                	add    %al,(%eax)
 2ba:	00 01                	add    %al,(%ecx)
 2bc:	00 00                	add    %al,(%eax)
 2be:	00 30                	add    %dh,(%eax)
 2c0:	31 2e                	xor    %ebp,(%esi)
 2c2:	30 31                	xor    %dh,(%ecx)
 2c4:	00 00                	add    %al,(%eax)
 2c6:	00 08                	add    %cl,(%eax)
 2c8:	00 00                	add    %al,(%eax)
 2ca:	00 00                	add    %al,(%eax)
 2cc:	00 00                	add    %al,(%eax)
 2ce:	00 01                	add    %al,(%ecx)
 2d0:	00 00                	add    %al,(%eax)
 2d2:	00 30                	add    %dh,(%eax)
 2d4:	31 2e                	xor    %ebp,(%esi)
 2d6:	30 31                	xor    %dh,(%ecx)
 2d8:	00 00                	add    %al,(%eax)
 2da:	00 08                	add    %cl,(%eax)
 2dc:	00 00                	add    %al,(%eax)
 2de:	00 00                	add    %al,(%eax)
 2e0:	00 00                	add    %al,(%eax)
 2e2:	00 01                	add    %al,(%ecx)
 2e4:	00 00                	add    %al,(%eax)
 2e6:	00 30                	add    %dh,(%eax)
 2e8:	31 2e                	xor    %ebp,(%esi)
 2ea:	30 31                	xor    %dh,(%ecx)
 2ec:	00 00                	add    %al,(%eax)
 2ee:	00 08                	add    %cl,(%eax)
 2f0:	00 00                	add    %al,(%eax)
 2f2:	00 00                	add    %al,(%eax)
 2f4:	00 00                	add    %al,(%eax)
 2f6:	00 01                	add    %al,(%ecx)
 2f8:	00 00                	add    %al,(%eax)
 2fa:	00 30                	add    %dh,(%eax)
 2fc:	31 2e                	xor    %ebp,(%esi)
 2fe:	30 31                	xor    %dh,(%ecx)
 300:	00 00                	add    %al,(%eax)
 302:	00 08                	add    %cl,(%eax)
 304:	00 00                	add    %al,(%eax)
 306:	00 00                	add    %al,(%eax)
 308:	00 00                	add    %al,(%eax)
 30a:	00 01                	add    %al,(%ecx)
 30c:	00 00                	add    %al,(%eax)
 30e:	00 30                	add    %dh,(%eax)
 310:	31 2e                	xor    %ebp,(%esi)
 312:	30 31                	xor    %dh,(%ecx)
 314:	00 00                	add    %al,(%eax)
 316:	00 08                	add    %cl,(%eax)
 318:	00 00                	add    %al,(%eax)
 31a:	00 00                	add    %al,(%eax)
 31c:	00 00                	add    %al,(%eax)
 31e:	00 01                	add    %al,(%ecx)
 320:	00 00                	add    %al,(%eax)
 322:	00 30                	add    %dh,(%eax)
 324:	31 2e                	xor    %ebp,(%esi)
 326:	30 31                	xor    %dh,(%ecx)
 328:	00 00                	add    %al,(%eax)
 32a:	00 08                	add    %cl,(%eax)
 32c:	00 00                	add    %al,(%eax)
 32e:	00 00                	add    %al,(%eax)
 330:	00 00                	add    %al,(%eax)
 332:	00 01                	add    %al,(%ecx)
 334:	00 00                	add    %al,(%eax)
 336:	00 30                	add    %dh,(%eax)
 338:	31 2e                	xor    %ebp,(%esi)
 33a:	30 31                	xor    %dh,(%ecx)
 33c:	00 00                	add    %al,(%eax)
 33e:	00 08                	add    %cl,(%eax)
 340:	00 00                	add    %al,(%eax)
 342:	00 00                	add    %al,(%eax)
 344:	00 00                	add    %al,(%eax)
 346:	00 01                	add    %al,(%ecx)
 348:	00 00                	add    %al,(%eax)
 34a:	00 30                	add    %dh,(%eax)
 34c:	31 2e                	xor    %ebp,(%esi)
 34e:	30 31                	xor    %dh,(%ecx)
 350:	00 00                	add    %al,(%eax)
 352:	00 08                	add    %cl,(%eax)
 354:	00 00                	add    %al,(%eax)
 356:	00 00                	add    %al,(%eax)
 358:	00 00                	add    %al,(%eax)
 35a:	00 01                	add    %al,(%ecx)
 35c:	00 00                	add    %al,(%eax)
 35e:	00 30                	add    %dh,(%eax)
 360:	31 2e                	xor    %ebp,(%esi)
 362:	30 31                	xor    %dh,(%ecx)
 364:	00 00                	add    %al,(%eax)
 366:	00 08                	add    %cl,(%eax)
 368:	00 00                	add    %al,(%eax)
 36a:	00 00                	add    %al,(%eax)
 36c:	00 00                	add    %al,(%eax)
 36e:	00 01                	add    %al,(%ecx)
 370:	00 00                	add    %al,(%eax)
 372:	00 30                	add    %dh,(%eax)
 374:	31 2e                	xor    %ebp,(%esi)
 376:	30 31                	xor    %dh,(%ecx)
 378:	00 00                	add    %al,(%eax)
	...
